(lp1
(lp2
I0
aI1
aI0
aI0
aI0
aI0
aI1
aI0
aI0
aI1
aI1
aI0
aI0
aF1.1399999999999999
aF42.840000000000003
aI6
aF38.543391874788085
aa(lp3
I0
aI1
aI0
aI0
aI1
aI0
aI0
aI0
aI0
aI1
aI0
aI0
aI1
aF1.083
aF35.899999999999999
aI7
aF19.916890636446645
aa(lp4
I0
aI1
aI0
aI0
aI0
aI1
aI0
aI0
aI1
aI0
aI0
aI0
aI1
aF1.1399999999999999
aF42.840000000000003
aI6
aF35.378860353852865
aa(lp5
I0
aI1
aI0
aI0
aI1
aI0
aI0
aI0
aI1
aI0
aI1
aI0
aI0
aF0.90249999999999997
aF36.700000000000003
aI1
aF20.270800812804787
aa(lp6
I0
aI1
aI0
aI0
aI0
aI1
aI0
aI0
aI0
aI1
aI0
aI1
aI0
aF1.0449999999999999
aF32.299999999999997
aI2
aF25.234386365565008
aa(lp7
I0
aI1
aI0
aI0
aI1
aI0
aI0
aI0
aI1
aI0
aI0
aI1
aI0
aF1.1399999999999999
aF42.840000000000003
aI6
aF30.549114498497978
aa(lp8
I0
aI0
aI1
aI0
aI0
aI1
aI0
aI0
aI0
aI1
aI0
aI0
aI1
aF1.0449999999999999
aF32.299999999999997
aI2
aF32.897927031241942
aa(lp9
I0
aI0
aI1
aI0
aI0
aI0
aI1
aI0
aI0
aI1
aI0
aI1
aI0
aF1.083
aF35.899999999999999
aI7
aF14.643640942854178
aa(lp10
I0
aI1
aI0
aI0
aI1
aI0
aI0
aI0
aI1
aI0
aI0
aI0
aI1
aF1.0449999999999999
aF32.299999999999997
aI2
aF26.547767932018843
aa(lp11
I0
aI0
aI1
aI0
aI0
aI1
aI0
aI0
aI1
aI0
aI0
aI1
aI0
aF1.1399999999999999
aF42.840000000000003
aI6
aF35.144655006654688
aa.