(dp1
S'ClII Cs GBL'
p2
F-12.540581616239338
sS'BrClI MA MCR'
p3
F-15.115099027482886
sS'BrClI FA THTO'
p4
F-23.020560026685359
sS'BrClI FA DMSO'
p5
F-24.039597129452321
sS'BrBrI FA MCR'
p6
F-12.235342734982899
sS'BrII Cs NM'
p7
F-10.390650175448169
sS'ClClCl FA NM'
p8
F-13.556878396151722
sS'BrClI MA NMP'
p9
F-26.331627226491666
sS'ClII Cs MCR'
p10
F-13.944922529119367
sS'BrClI FA NM'
p11
F-12.228422481838802
sS'ClII FA DMSO'
p12
F-20.237575012198246
sS'BrBrI MA DMF'
p13
F-27.176448715298612
sS'ClClI FA NM'
p14
F-12.908410708070988
sS'BrClCl Cs THTO'
p15
F-17.867179402474719
sS'BrBrBr MA GBL'
p16
F-12.459841397223551
sS'BrClI MA GBL'
p17
F-14.377465660909321
sS'ClII Cs ACE'
p18
F-14.585732070904804
sS'ClII FA GBL'
p19
F-14.356243342627877
sS'BrBrI MA THTO'
p20
F-27.206066150913006
sS'III MA THTO'
p21
F-29.132585023561656
sS'ClII MA MCR'
p22
F-18.74390190920515
sS'BrII MA MCR'
p23
F-20.400924124673885
sS'BrII Cs DMSO'
p24
F-25.589713407409956
sS'III Cs NMP'
p25
F-23.263970138726734
sS'BrClI FA GBL'
p26
F-14.212469978512939
sS'BrBrBr Cs GBL'
p27
F-12.628268755357983
sS'BrClI Cs MCR'
p28
F-17.094331075437214
sS'BrBrBr FA DMSO'
p29
F-24.055125048171831
sS'ClII Cs DMF'
p30
F-22.169978249073267
sS'BrBrBr MA THTO'
p31
F-19.800987218597374
sS'ClClCl FA NMP'
p32
F-21.831288090972997
sS'III Cs DMF'
p33
F-23.690631007619157
sS'ClII MA DMSO'
p34
F-24.051115741846459
sS'BrBrI Cs GBL'
p35
F-12.379839483406606
sS'BrBrCl MA MCR'
p36
F-16.261675560685585
sS'BrBrCl FA DMSO'
p37
F-17.14974946865059
sS'BrBrCl FA GBL'
p38
F-13.124409618986853
sS'BrClI Cs GBL'
p39
F-12.798735333000925
sS'BrII MA DMF'
p40
F-24.120845209459112
sS'BrBrBr Cs MCR'
p41
F-17.348266064941324
sS'BrII FA MCR'
p42
F-15.138191901816542
sS'ClII FA NMP'
p43
F-20.781043249859717
sS'BrBrBr FA NM'
p44
F-11.430541850680314
sS'III MA GBL'
p45
F-15.419130430085117
sS'BrBrCl MA ACE'
p46
F-15.209570752202879
sS'BrBrBr Cs DMF'
p47
F-18.809749355262586
sS'BrBrI Cs DMSO'
p48
F-25.695842422240382
sS'ClII MA THTO'
p49
F-27.873837437019553
sS'BrBrBr FA GBL'
p50
F-12.652895605738948
sS'III FA DMF'
p51
F-16.870149528515928
sS'ClII MA DMF'
p52
F-23.513548777203031
sS'BrClCl Cs MCR'
p53
F-17.424699212999968
sS'ClClCl FA DMSO'
p54
F-16.251121887256154
sS'BrClCl FA DMSO'
p55
F-22.431455841177552
sS'BrII FA ACE'
p56
F-14.606987472988076
sS'III FA NM'
p57
F-11.932187141074159
sS'ClClCl FA THTO'
p58
F-17.852851622596749
sS'BrBrBr MA NMP'
p59
F-23.580131853573842
sS'BrClI Cs ACE'
p60
F-14.279252307027889
sS'BrClI MA NM'
p61
F-10.767867480927402
sS'BrClCl Cs NMP'
p62
F-21.909615282940958
sS'ClClCl MA NM'
p63
F-10.730009504200845
sS'III FA DMSO'
p64
F-16.074898309199373
sS'ClClI Cs THTO'
p65
F-18.772720535817367
sS'BrBrBr Cs NM'
p66
F-11.075474410550321
sS'BrBrCl FA NM'
p67
F-12.496093878530752
sS'BrClI Cs NM'
p68
F-11.385999601693698
sS'ClClCl Cs DMF'
p69
F-17.104711517788029
sS'BrClCl Cs ACE'
p70
F-14.137813412963363
sS'BrBrCl Cs THTO'
p71
F-17.053942728968842
sS'III Cs GBL'
p72
F-13.887783807602242
sS'ClClI MA ACE'
p73
F-15.500940680760072
sS'ClClCl Cs DMSO'
p74
F-21.059788914785198
sS'BrBrI Cs NM'
p75
F-11.189083127652561
sS'BrBrI MA DMSO'
p76
F-25.268485376596466
sS'ClClI MA THTO'
p77
F-28.36531389335703
sS'BrBrCl FA THTO'
p78
F-25.669936844203761
sS'III FA ACE'
p79
F-14.866511754806723
sS'III FA MCR'
p80
F-14.018923203136442
sS'BrII MA DMSO'
p81
F-22.271433905990108
sS'ClClCl Cs NM'
p82
F-11.806754344736873
sS'BrClCl MA DMF'
p83
F-19.125011843042206
sS'BrClI FA MCR'
p84
F-18.26337801167238
sS'ClClI FA GBL'
p85
F-13.48495294016843
sS'ClClCl Cs THTO'
p86
F-26.765713774043679
sS'ClClCl Cs NMP'
p87
F-23.606102079431739
sS'BrII MA GBL'
p88
F-14.16111148987711
sS'ClClI FA DMF'
p89
F-15.295744182796353
sS'BrII Cs GBL'
p90
F-13.193253301444992
sS'ClClCl FA GBL'
p91
F-13.051843179805667
sS'ClClCl MA MCR'
p92
F-18.318919794749871
sS'ClClI MA GBL'
p93
F-15.102155786042216
sS'ClClCl MA GBL'
p94
F-15.85553041685
sS'BrBrCl Cs MCR'
p95
F-17.199187915710418
sS'III Cs DMSO'
p96
F-24.651376032130621
sS'ClClI Cs NMP'
p97
F-21.681237506449396
sS'BrII Cs THTO'
p98
F-18.86861647796427
sS'III MA ACE'
p99
F-15.830407083300534
sS'BrII FA GBL'
p100
F-14.686506769439223
sS'ClClCl MA ACE'
p101
F-15.666491829489859
sS'BrBrBr Cs THTO'
p102
F-25.240372424519535
sS'BrClI MA THTO'
p103
F-28.036171523628298
sS'BrBrI MA NM'
p104
F-11.835411270042677
sS'ClClI Cs DMSO'
p105
F-25.34172610121399
sS'BrBrI FA NMP'
p106
F-18.416536420748567
sS'BrBrBr FA DMF'
p107
F-16.759919546876688
sS'BrBrI Cs THTO'
p108
F-26.003344481172348
sS'BrBrI FA THTO'
p109
F-20.117207112203356
sS'III MA MCR'
p110
F-18.16718221583498
sS'ClII MA NM'
p111
F-12.429500724827141
sS'BrClI Cs DMF'
p112
F-20.54145918966374
sS'ClII Cs THTO'
p113
F-19.265373545834404
sS'ClClI FA ACE'
p114
F-14.356360785908288
sS'BrClCl MA ACE'
p115
F-15.680203502262341
sS'III MA NMP'
p116
F-24.125424719954943
sS'BrBrCl Cs ACE'
p117
F-13.739019141308097
sS'BrClI Cs DMSO'
p118
F-22.095672954139964
sS'BrClCl MA THTO'
p119
F-23.44386660603972
sS'BrClI MA DMF'
p120
F-19.833945695162537
sS'III Cs NM'
p121
F-11.71119443900016
sS'III FA GBL'
p122
F-14.386370320809981
sS'BrClI Cs THTO'
p123
F-17.956357836182011
sS'BrClCl FA DMF'
p124
F-18.118646546472021
sS'BrBrI Cs MCR'
p125
F-17.923881918485577
sS'BrII Cs DMF'
p126
F-17.59295540300484
sS'BrClCl FA NM'
p127
F-13.534493847697313
sS'BrBrCl MA NM'
p128
F-11.677435367988146
sS'ClClI Cs MCR'
p129
F-19.7720348323029
sS'BrII Cs ACE'
p130
F-17.318082502116795
sS'ClClI MA NMP'
p131
F-26.085991890671558
sS'BrClCl FA ACE'
p132
F-12.096963983226315
sS'III Cs ACE'
p133
F-14.516399940635246
sS'III MA DMF'
p134
F-24.282295452302638
sS'ClII Cs NM'
p135
F-12.416870281907526
sS'BrBrI MA ACE'
p136
F-14.994249317809777
sS'BrBrCl Cs DMSO'
p137
F-25.068094351604909
sS'ClClI Cs NM'
p138
F-13.130257580344802
sS'BrClCl FA MCR'
p139
F-14.84272008490769
sS'ClClI MA DMSO'
p140
F-20.139678063396158
sS'BrBrCl Cs NMP'
p141
F-21.174681411121647
sS'BrBrBr Cs ACE'
p142
F-13.638413987538248
sS'BrII MA NMP'
p143
F-24.609724841102103
sS'III Cs MCR'
p144
F-21.892868663546682
sS'BrBrI FA NM'
p145
F-11.691857638751625
sS'ClII FA THTO'
p146
F-25.94636781408418
sS'BrBrCl Cs NM'
p147
F-10.409105362524581
sS'ClII MA NMP'
p148
F-22.059097161817789
sS'III MA DMSO'
p149
F-28.355488962139816
sS'III FA THTO'
p150
F-24.256893153367127
sS'BrBrCl FA MCR'
p151
F-13.408725500190149
sS'BrBrI FA DMF'
p152
F-17.373233698698254
sS'BrClCl MA GBL'
p153
F-14.259522019399421
sS'ClClI Cs GBL'
p154
F-13.610711453319642
sS'BrBrBr Cs NMP'
p155
F-19.185508366489671
sS'BrBrI MA GBL'
p156
F-14.386159818823511
sS'ClClI MA MCR'
p157
F-18.526630550079926
sS'ClClCl Cs MCR'
p158
F-17.331506437939137
sS'ClII FA DMF'
p159
F-19.924531053707227
sS'BrBrI FA DMSO'
p160
F-17.802172169501898
sS'BrBrI FA GBL'
p161
F-13.727703168751743
sS'BrBrI Cs NMP'
p162
F-21.138752313594068
sS'BrBrCl Cs GBL'
p163
F-11.740116988080112
sS'BrII MA THTO'
p164
F-28.783519315462964
sS'BrBrCl MA NMP'
p165
F-16.149938402218243
sS'ClClCl MA DMSO'
p166
F-21.106393354223083
sS'ClClI Cs DMF'
p167
F-20.125213611252615
sS'ClClI Cs ACE'
p168
F-14.49015561977162
sS'ClClI MA NM'
p169
F-11.389587841126108
sS'BrClI FA DMF'
p170
F-17.54664895262772
sS'ClII Cs DMSO'
p171
F-24.30064702380691
sS'ClII FA NM'
p172
F-12.478968805503158
sS'BrBrCl MA DMF'
p173
F-17.850109500743301
sS'ClClI FA THTO'
p174
F-25.313712256011975
sS'ClClCl FA DMF'
p175
F-14.503806473712652
sS'III Cs THTO'
p176
F-27.626172485910853
sS'ClClCl MA THTO'
p177
F-25.591588263424732
sS'BrII FA NMP'
p178
F-20.252013408891404
sS'BrClCl FA THTO'
p179
F-24.249094049824649
sS'BrBrI FA ACE'
p180
F-14.223960465516527
sS'BrBrBr MA DMF'
p181
F-21.581095252395649
sS'ClClCl Cs ACE'
p182
F-14.542264512369499
sS'BrClCl Cs GBL'
p183
F-14.476045093155209
sS'BrClCl FA NMP'
p184
F-18.263454373745645
sS'BrBrCl Cs DMF'
p185
F-16.239512972081265
sS'III FA NMP'
p186
F-20.177790722234207
sS'BrBrBr MA NM'
p187
F-11.059232000931244
sS'BrBrBr MA DMSO'
p188
F-15.271603968529792
sS'ClClI FA MCR'
p189
F-13.53580235135958
sS'ClClCl MA DMF'
p190
F-19.408048710810267
sS'BrII FA DMF'
p191
F-20.028825978131206
sS'BrBrI MA NMP'
p192
F-26.369242208963694
sS'ClII FA ACE'
p193
F-15.051227777191054
sS'BrClCl Cs DMSO'
p194
F-21.079530936640261
sS'BrClI FA ACE'
p195
F-14.022657804231788
sS'ClII MA GBL'
p196
F-13.920698620528693
sS'ClClI MA DMF'
p197
F-20.03850193258117
sS'BrBrCl FA DMF'
p198
F-17.933027698879787
sS'BrClCl Cs DMF'
p199
F-16.670601816240236
sS'BrII FA DMSO'
p200
F-22.522077046012463
sS'ClII FA MCR'
p201
F-13.106866453570897
sS'ClClI FA NMP'
p202
F-17.642810413539408
sS'BrBrBr Cs DMSO'
p203
F-25.515077884540016
sS'BrClI FA NMP'
p204
F-18.806856072275743
sS'ClII MA ACE'
p205
F-16.120795496821259
sS'BrII FA NM'
p206
F-11.756193167578267
sS'BrBrBr MA MCR'
p207
F-17.021110285336569
sS'BrBrBr MA ACE'
p208
F-14.77267848064691
sS'BrII FA THTO'
p209
F-23.05204624218122
sS'ClClCl FA MCR'
p210
F-12.406149183019513
sS'BrII Cs NMP'
p211
F-18.27131159840598
sS'III MA NM'
p212
F-11.799303066047981
sS'BrBrCl FA NMP'
p213
F-17.561690204272182
sS'BrClI Cs NMP'
p214
F-22.732985469545195
sS'BrClCl MA NM'
p215
F-7.4594440709717693
sS'BrClCl MA NMP'
p216
F-15.121357258459026
sS'BrClCl MA DMSO'
p217
F-17.998960959280705
sS'ClII Cs NMP'
p218
F-22.994160524512978
sS'BrBrI MA MCR'
p219
F-17.9953192844883
sS'BrClCl Cs NM'
p220
F-12.054605149878201
sS'BrBrCl FA ACE'
p221
F-13.834618621595757
sS'BrII MA ACE'
p222
F-15.505309811399894
sS'ClClI FA DMSO'
p223
F-18.170375393317585
sS'BrBrBr FA THTO'
p224
F-21.829712654914356
sS'ClClCl Cs GBL'
p225
F-15.173247205517955
sS'BrBrBr FA ACE'
p226
F-13.591184065056197
sS'ClClCl MA NMP'
p227
F-24.036835026712367
sS'BrBrCl MA DMSO'
p228
F-21.153131504833464
sS'BrBrI Cs DMF'
p229
F-20.268428516409728
sS'BrBrI Cs ACE'
p230
F-13.611524179487805
sS'BrBrCl MA GBL'
p231
F-12.653411716528725
sS'BrBrBr FA MCR'
p232
F-12.386202226101442
sS'BrClCl FA GBL'
p233
F-13.115783642402231
sS'BrII MA NM'
p234
F-11.336270699852856
sS'BrClI MA DMSO'
p235
F-24.053179164588414
sS'BrClI MA ACE'
p236
F-15.396300649170708
sS'BrBrCl MA THTO'
p237
F-26.018457295847643
sS'BrClCl MA MCR'
p238
F-17.716467256625918
sS'BrII Cs MCR'
p239
F-21.804340892019315
sS'ClClCl FA ACE'
p240
F-14.609609928387153
sS'BrBrBr FA NMP'
p241
F-22.173086927112347
s.