(dp1
S'BrClI MA MCR'
p2
F-23.146121914638837
sS'BrBrI FA MCR'
p3
F-23.712453794884883
sS'BrII Cs NM'
p4
F-19.569463267303124
sS'ClClCl FA NM'
p5
F-21.166562663474338
sS'BrClI MA NMP'
p6
F-34.746086328088168
sS'ClII Cs MCR'
p7
F-24.570019881215199
sS'BrBrI MA DMF'
p8
F-29.513649259916804
sS'ClClI FA NM'
p9
F-16.354111734376648
sS'BrClCl Cs THTO'
p10
F-35.378860353852865
sS'BrBrBr FA DMF'
p11
F-15.059205778180628
sS'ClII Cs ACE'
p12
F-22.718871118504584
sS'BrBrI MA THTO'
p13
F-42.658867862463197
sS'III MA THTO'
p14
F-41.768396532185434
sS'BrBrBr Cs ACE'
p15
F-20.798177777297671
sS'BrII MA MCR'
p16
F-24.339615294298149
sS'III Cs NMP'
p17
F-31.833314116185807
sS'BrClI Cs MCR'
p18
F-22.760979631482378
sS'ClII Cs DMF'
p19
F-29.467358616874357
sS'BrBrBr MA THTO'
p20
F-35.833924044061838
sS'ClClCl FA NMP'
p21
F-26.77282300995752
sS'III Cs DMF'
p22
F-29.696263471071969
sS'BrBrCl MA MCR'
p23
F-23.764839459514093
sS'BrII Cs DMF'
p24
F-26.738893282165929
sS'BrII MA DMF'
p25
F-30.654810244374971
sS'BrBrBr Cs MCR'
p26
F-21.106124532086039
sS'BrII FA MCR'
p27
F-24.682128968467229
sS'ClII FA NMP'
p28
F-23.510204957070805
sS'ClClCl Cs THTO'
p29
F-36.788006746125475
sS'BrBrCl MA ACE'
p30
F-22.611856771943266
sS'BrBrBr Cs DMF'
p31
F-27.200813074209432
sS'ClII MA THTO'
p32
F-37.752085776245139
sS'ClClI MA NM'
p33
F-15.664146265684412
sS'III FA DMF'
p34
F-23.401757931980974
sS'ClII MA DMF'
p35
F-29.83235035433837
sS'BrClCl Cs MCR'
p36
F-26.620754533813916
sS'BrII MA NM'
p37
F-15.17325354602948
sS'BrClCl MA THTO'
p38
F-32.856034032736012
sS'III FA NM'
p39
F-12.042889191202953
sS'ClClCl FA THTO'
p40
F-35.144655006654688
sS'BrBrBr MA NMP'
p41
F-34.86656263870271
sS'BrClI Cs ACE'
p42
F-19.437341011870583
sS'BrClI MA NM'
p43
F-15.65565659882621
sS'BrClCl Cs NMP'
p44
F-26.735216598732791
sS'ClClCl MA NM'
p45
F-19.565029732532253
sS'ClClI Cs THTO'
p46
F-32.09068820941426
sS'BrBrBr Cs NM'
p47
F-15.046598872911961
sS'BrBrCl FA NM'
p48
F-19.957469113511387
sS'BrClI Cs NM'
p49
F-15.268298870175395
sS'ClClCl Cs DMF'
p50
F-27.03819921352833
sS'ClClI MA ACE'
p51
F-23.222891191989607
sS'BrBrI Cs NM'
p52
F-19.916890636446645
sS'BrII Cs MCR'
p53
F-24.691276723208837
sS'ClClI MA THTO'
p54
F-39.248578068553989
sS'III FA ACE'
p55
F-19.982406692473237
sS'III FA MCR'
p56
F-19.521921820252029
sS'ClClCl Cs NM'
p57
F-17.054905162832256
sS'BrClCl MA DMF'
p58
F-21.670709406796917
sS'BrClI FA MCR'
p59
F-12.973557647737808
sS'BrBrBr FA NM'
p60
F-10.94540664093442
sS'ClClCl Cs NMP'
p61
F-31.167488149665328
sS'ClClI FA DMF'
p62
F-16.623253668757187
sS'ClClCl MA MCR'
p63
F-20.757843053807939
sS'BrBrCl Cs MCR'
p64
F-22.107922552750946
sS'ClClI Cs NMP'
p65
F-32.897927031241942
sS'BrII Cs THTO'
p66
F-33.241377469048658
sS'III MA ACE'
p67
F-24.573110818377476
sS'ClClCl MA ACE'
p68
F-24.233149582754034
sS'BrBrBr Cs THTO'
p69
F-36.887534671527284
sS'BrClI MA THTO'
p70
F-35.239764514212226
sS'BrBrI MA NM'
p71
F-15.698872543207255
sS'BrBrI FA NMP'
p72
F-23.241790251968542
sS'BrBrI Cs THTO'
p73
F-35.849266739090311
sS'BrBrI FA THTO'
p74
F-31.614608814567358
sS'III MA MCR'
p75
F-21.605623191938214
sS'ClII MA NM'
p76
F-17.18005741265053
sS'BrClI Cs DMF'
p77
F-24.686408876524606
sS'ClII Cs THTO'
p78
F-35.01923842213791
sS'ClClI FA ACE'
p79
F-15.662891106640345
sS'BrClCl MA ACE'
p80
F-18.067575614586822
sS'III MA NMP'
p81
F-34.938801937165714
sS'BrBrCl Cs ACE'
p82
F-23.002478711495041
sS'BrClCl FA NM'
p83
F-21.000790437058793
sS'BrII FA ACE'
p84
F-18.836856429130059
sS'BrClI MA DMF'
p85
F-25.499073000983639
sS'III Cs NM'
p86
F-14.482661478283154
sS'BrBrCl FA THTO'
p87
F-30.549114498497978
sS'BrClI Cs THTO'
p88
F-39.177107356939395
sS'BrBrCl MA NM'
p89
F-15.781692247118608
sS'ClClI Cs MCR'
p90
F-23.735200783471438
sS'BrII Cs ACE'
p91
F-22.598301107000317
sS'ClClI MA NMP'
p92
F-33.034713156220874
sS'BrClCl FA ACE'
p93
F-18.175912259132552
sS'III Cs ACE'
p94
F-23.541099887622142
sS'III MA DMF'
p95
F-30.404208590330949
sS'ClII Cs NM'
p96
F-15.455004892777444
sS'BrBrI MA ACE'
p97
F-19.993257328981922
sS'ClClI Cs NM'
p98
F-16.371899725861429
sS'BrClCl FA MCR'
p99
F-18.917351794825947
sS'BrBrCl Cs NMP'
p100
F-26.547767932018843
sS'ClII MA MCR'
p101
F-19.793124335558399
sS'BrII MA NMP'
p102
F-32.347373991464124
sS'III Cs MCR'
p103
F-24.393270657203793
sS'BrBrI FA NM'
p104
F-12.668426414213643
sS'ClII FA THTO'
p105
F-35.393566692516202
sS'BrBrCl Cs NM'
p106
F-15.203572719611797
sS'ClII MA NMP'
p107
F-32.274669731620037
sS'BrBrBr FA THTO'
p108
F-34.361052375510255
sS'BrBrCl Cs THTO'
p109
F-38.088457681965203
sS'BrBrCl FA MCR'
p110
F-23.717407454485841
sS'ClClCl MA THTO'
p111
F-30.926266434644532
sS'BrBrI FA DMF'
p112
F-21.952426972629208
sS'BrBrBr Cs NMP'
p113
F-32.83841378373539
sS'ClClI MA MCR'
p114
F-20.509684136331447
sS'ClClCl Cs MCR'
p115
F-22.542592969103271
sS'ClII FA DMF'
p116
F-22.8373003611588
sS'BrBrI Cs NMP'
p117
F-33.377597830783365
sS'BrII MA THTO'
p118
F-38.543391874788085
sS'BrBrCl MA NMP'
p119
F-24.312545282461187
sS'ClClI Cs DMF'
p120
F-25.487792256646035
sS'ClClI Cs ACE'
p121
F-24.384514371265222
sS'BrClCl FA DMF'
p122
F-21.448450423245987
sS'BrClI FA DMF'
p123
F-17.31411774059573
sS'ClII FA NM'
p124
F-14.643640942854178
sS'BrBrCl MA DMF'
p125
F-20.270800812804787
sS'ClClI FA THTO'
p126
F-31.085558960467818
sS'ClClCl FA DMF'
p127
F-20.981375351182166
sS'III Cs THTO'
p128
F-37.881379651188375
sS'BrClCl Cs ACE'
p129
F-22.77696126088458
sS'BrII FA NMP'
p130
F-22.24444392470599
sS'BrClCl FA THTO'
p131
F-30.401669858504519
sS'BrBrI FA ACE'
p132
F-18.727377497488785
sS'BrBrBr MA DMF'
p133
F-21.326670288306634
sS'ClClCl Cs ACE'
p134
F-23.679374213693521
sS'ClClCl FA ACE'
p135
F-20.312896000007697
sS'BrClCl FA NMP'
p136
F-26.498302183663753
sS'BrBrCl Cs DMF'
p137
F-23.193464676539332
sS'III FA NMP'
p138
F-29.534923796391194
sS'BrBrBr MA NM'
p139
F-14.423500507685128
sS'III FA THTO'
p140
F-35.920778252410209
sS'ClClI FA MCR'
p141
F-13.547425911061564
sS'BrBrI Cs MCR'
p142
F-22.0789721052776
sS'BrII FA DMF'
p143
F-20.112702722358858
sS'BrBrI MA NMP'
p144
F-30.693383478740717
sS'BrClI FA ACE'
p145
F-20.370616621114063
sS'ClClI MA DMF'
p146
F-27.270918596932916
sS'BrBrCl FA DMF'
p147
F-19.778111285350679
sS'BrClCl Cs DMF'
p148
F-20.132003425207809
sS'ClII FA ACE'
p149
F-21.023992715606212
sS'ClClI FA NMP'
p150
F-21.989020239167164
sS'BrClI FA NM'
p151
F-20.346066961181926
sS'BrClI FA NMP'
p152
F-25.234386365565008
sS'ClII MA ACE'
p153
F-21.595474081809275
sS'BrII FA NM'
p154
F-13.659009906226336
sS'BrBrBr MA MCR'
p155
F-19.680528868009635
sS'BrBrBr MA ACE'
p156
F-20.71985395033791
sS'BrII FA THTO'
p157
F-32.082283462893123
sS'ClClCl FA MCR'
p158
F-24.461481629090933
sS'BrII Cs NMP'
p159
F-31.279121167941696
sS'III MA NM'
p160
F-14.240607268509248
sS'BrBrCl FA NMP'
p161
F-26.792053523886043
sS'BrClI Cs NMP'
p162
F-30.404978219568584
sS'BrClCl MA NM'
p163
F-16.984143408151866
sS'BrClCl MA NMP'
p164
F-20.751099669261393
sS'ClII Cs NMP'
p165
F-32.994451763514846
sS'BrBrI MA MCR'
p166
F-22.136835400591448
sS'BrClCl Cs NM'
p167
F-16.473592843495464
sS'BrBrCl FA ACE'
p168
F-19.835027042865597
sS'BrII MA ACE'
p169
F-22.540836731161257
sS'BrClI FA THTO'
p170
F-34.098842595573743
sS'BrBrBr FA ACE'
p171
F-17.072297825563531
sS'ClClCl MA NMP'
p172
F-28.186634998296086
sS'BrBrI Cs DMF'
p173
F-25.523713706323946
sS'BrBrI Cs ACE'
p174
F-21.917568397708148
sS'BrBrBr FA MCR'
p175
F-16.106279575675277
sS'ClClCl MA DMF'
p176
F-24.886038197347233
sS'BrClI MA ACE'
p177
F-19.244050474342252
sS'BrBrCl MA THTO'
p178
F-37.12019623671469
sS'BrClCl MA MCR'
p179
F-23.332375470262946
sS'BrBrBr FA NMP'
p180
F-29.914614320118964
s.