(lp1
(F-107.77590136092201
F10.115
tp2
a(F-107.81281841776701
F7.9619999999999997
tp3
a(F-107.849514474508
F7.9630000000000001
tp4
a(F-107.885990612776
F7.9089999999999998
tp5
a(F-107.922247912118
F7.8979999999999997
tp6
a(F-107.95828745054
F8.3849999999999998
tp7
a(F-107.994110304245
F7.9530000000000003
tp8
a(F-108.02971754758499
F7.9640000000000004
tp9
a(F-108.06511025317
F7.9080000000000004
tp10
a(F-108.100289361769
F7.7990000000000004
tp11
a(F-108.135256209498
F7.673
tp12
a(F-108.170011839906
F8.2569999999999997
tp13
a(F-108.204557081977
F7.8899999999999997
tp14
a(F-108.238893119583
F7.9770000000000003
tp15
a(F-108.27302101399501
F7.9530000000000003
tp16
a(F-108.306941823497
F7.907
tp17
a(F-108.34065662690701
F7.5090000000000003
tp18
a(F-108.374166414218
F8.4000000000000004
tp19
a(F-108.40747231787201
F7.4400000000000004
tp20
a(F-108.440575313626
F7.9000000000000004
tp21
a(F-108.47347650174
F7.8940000000000001
tp22
a(F-108.506176922327
F7.4160000000000004
tp23
a(F-108.538677590503
F7.8289999999999997
tp24
a(F-108.570979549632
F7.9000000000000004
tp25
a(F-108.603083860062
F7.9489999999999998
tp26
a(F-108.63499154394
F7.9390000000000001
tp27
a(F-108.666703633764
F8.0250000000000004
tp28
a(F-108.698221159008
F8.6310000000000002
tp29
a(F-108.729545150799
F8.6379999999999999
tp30
a(F-108.760676622296
F7.492
tp31
a(F-108.791616600258
F8.1419999999999995
tp32
a(F-108.822366101453
F8.9849999999999994
tp33
a(F-108.85292614545
F9.1579999999999995
tp34
a(F-108.883297740176
F7.9809999999999999
tp35
a(F-108.913481895377
F7.8840000000000003
tp36
a(F-108.943479617177
F7.9299999999999997
tp37
a(F-108.97329190753101
F8.4890000000000008
tp38
a(F-109.002919767612
F8.8460000000000001
tp39
a(F-109.03236419264699
F7.9379999999999997
tp40
a(F-109.061626176131
F8.1539999999999999
tp41
a(F-109.090706707705
F8.0220000000000002
tp42
a(F-109.119606773966
F7.968
tp43
a(F-109.148327357638
F7.9660000000000002
tp44
a(F-109.176869439154
F7.9240000000000004
tp45
a(F-109.205233993761
F8.0899999999999999
tp46
a(F-109.233421995141
F7.9260000000000002
tp47
a(F-109.261434411734
F7.9240000000000004
tp48
a(F-109.289272209949
F8.0129999999999999
tp49
a(F-109.316936351875
F7.9180000000000001
tp50
a(F-109.34442779199701
F7.6550000000000002
tp51
a(F-109.37174749791799
F8.5269999999999992
tp52
a(F-109.39889640397099
F7.4930000000000003
tp53
a(F-109.42587547092801
F8.1449999999999996
tp54
a(F-109.45268563838199
F7.4960000000000004
tp55
a(F-109.479327847148
F7.6929999999999996
tp56
a(F-109.505803033737
F7.4580000000000002
tp57
a(F-109.53211213143599
F7.923
tp58
a(F-109.558256069691
F7.5969999999999995
tp59
a(F-109.584235773891
F7.5060000000000002
tp60
a(F-109.61005216626999
F7.8520000000000003
tp61
a(F-109.63570616495799
F7.5940000000000003
tp62
a(F-109.661198684449
F7.4729999999999999
tp63
a(F-109.686530635598
F7.5199999999999996
tp64
a(F-109.711702925455
F8.125
tp65
a(F-109.73671645707201
F7.6589999999999998
tp66
a(F-109.761572130594
F7.6870000000000003
tp67
a(F-109.786270841245
F7.5270000000000001
tp68
a(F-109.81081348139701
F7.5679999999999996
tp69
a(F-109.835200939353
F7.4429999999999996
tp70
a(F-109.85943409992301
F7.5640000000000001
tp71
a(F-109.88351384363899
F7.4939999999999998
tp72
a(F-109.907441047909
F7.4770000000000003
tp73
a(F-109.931216586134
F8.7080000000000002
tp74
a(F-109.954841327876
F7.4790000000000001
tp75
a(F-109.978316139405
F7.4790000000000001
tp76
a(F-110.001641882705
F7.4489999999999998
tp77
a(F-110.024819416789
F7.4879999999999995
tp78
a(F-110.04784959612
F7.5019999999999998
tp79
a(F-110.070733272089
F7.4560000000000004
tp80
a(F-110.093471292077
F7.5170000000000003
tp81
a(F-110.116064500156
F7.617
tp82
a(F-110.138513736212
F7.6299999999999999
tp83
a(F-110.160819836884
F7.6870000000000003
tp84
a(F-110.18298363481399
F7.4809999999999999
tp85
a(F-110.20500595928701
F8.0860000000000003
tp86
a(F-110.226887635553
F7.9619999999999997
tp87
a(F-110.248629485636
F7.4710000000000001
tp88
a(F-110.27023232774999
F7.6349999999999998
tp89
a(F-110.291696976236
F7.4850000000000003
tp90
a(F-110.313024242076
F7.6100000000000003
tp91
a(F-110.334214932397
F7.5030000000000001
tp92
a(F-110.355269850824
F8.4670000000000005
tp93
a(F-110.376189797363
F7.633
tp94
a(F-110.396975568662
F7.6200000000000001
tp95
a(F-110.417627956803
F7.6550000000000002
tp96
a(F-110.438147751109
F7.7160000000000002
tp97
a(F-110.458535737237
F7.633
tp98
a(F-110.478792696936
F7.4589999999999996
tp99
a(F-110.49891940834701
F7.4370000000000003
tp100
a(F-110.518916645955
F7.452
tp101
a(F-110.538785181007
F7.8609999999999998
tp102
a(F-110.558525780815
F7.4770000000000003
tp103
a(F-110.57813920920999
F7.6120000000000001
tp104
a(F-110.59762622630799
F7.7809999999999997
tp105
a(F-110.61698758855501
F7.782
tp106
a(F-110.63622404889
F8.2550000000000008
tp107
a(F-110.65533635661799
F9.6939999999999991
tp108
a(F-110.674325257481
F7.4480000000000004
tp109
a(F-110.69319149371201
F7.7519999999999998
tp110
a(F-110.71193580332501
F7.4900000000000002
tp111
a(F-110.730558921464
F7.508
tp112
a(F-110.74906157927499
F7.6440000000000001
tp113
a(F-110.767444504181
F7.5700000000000003
tp114
a(F-110.785708420275
F7.4909999999999997
tp115
a(F-110.80385404785299
F7.5380000000000003
tp116
a(F-110.821882103558
F7.4850000000000003
tp117
a(F-110.83979330024
F7.4249999999999998
tp118
a(F-110.857588347271
F7.4409999999999998
tp119
a(F-110.875267950436
F7.4879999999999995
tp120
a(F-110.892832811735
F7.4779999999999998
tp121
a(F-110.91028362961001
F7.4699999999999998
tp122
a(F-110.92762109871001
F7.5369999999999999
tp123
a(F-110.944845910056
F7.4870000000000001
tp124
a(F-110.96195875095199
F8.0860000000000003
tp125
a(F-110.978960305257
F7.5330000000000004
tp126
a(F-110.99585125257801
F7.6459999999999999
tp127
a(F-111.012632269807
F7.7160000000000002
tp128
a(F-111.029304029177
F7.4450000000000003
tp129
a(F-111.04586719989901
F7.6820000000000004
tp130
a(F-111.06232244706101
F7.4329999999999998
tp131
a(F-111.07867043217399
F7.4290000000000003
tp132
a(F-111.094911813631
F7.5380000000000003
tp133
a(F-111.11104724533
F10.111000000000001
tp134
a(F-111.12707737779
F7.4950000000000001
tp135
a(F-111.14300285789901
F8.3629999999999995
tp136
a(F-111.158824328978
F7.8570000000000002
tp137
a(F-111.174542430526
F7.4539999999999997
tp138
a(F-111.190157798391
F7.5
tp139
a(F-111.20567106489401
F7.6829999999999998
tp140
a(F-111.221082858486
F7.5430000000000001
tp141
a(F-111.23639380433001
F7.4800000000000004
tp142
a(F-111.251604523361
F9.5030000000000001
tp143
a(F-111.266715633525
F9.3499999999999996
tp144
a(F-111.28172774879501
F7.4950000000000001
tp145
a(F-111.296641479893
F7.4459999999999997
tp146
a(F-111.311457433081
F7.8520000000000003
tp147
a(F-111.32617621182401
F7.4660000000000002
tp148
a(F-111.34079841582
F7.6219999999999999
tp149
a(F-111.35532464104401
F7.4489999999999998
tp150
a(F-111.36975548029601
F7.4349999999999996
tp151
a(F-111.38409152254501
F7.7309999999999999
tp152
a(F-111.398333352957
F8.6009999999999991
tp153
a(F-111.412481553813
F7.5679999999999996
tp154
a(F-111.426536703615
F7.5640000000000001
tp155
a(F-111.440499377328
F7.6159999999999997
tp156
a(F-111.454370146382
F7.96
tp157
a(F-111.46814957893601
F7.4779999999999998
tp158
a(F-111.48183823957901
F7.6210000000000004
tp159
a(F-111.495436689884
F7.4900000000000002
tp160
a(F-111.508945487451
F7.4530000000000003
tp161
a(F-111.522365186759
F7.4580000000000002
tp162
a(F-111.535696339148
F7.4589999999999996
tp163
a(F-111.548939492163
F7.4470000000000001
tp164
a(F-111.562095190579
F7.468
tp165
a(F-111.575163975761
F7.5860000000000003
tp166
a(F-111.588146385068
F7.4390000000000001
tp167
a(F-111.60104295390801
F7.5759999999999996
tp168
a(F-111.613854213268
F7.3860000000000001
tp169
a(F-111.62658069151701
F7.7450000000000001
tp170
a(F-111.63922291373299
F7.5339999999999998
tp171
a(F-111.65178140175
F7.391
tp172
a(F-111.66425667446001
F7.6779999999999999
tp173
a(F-111.676649247246
F7.875
tp174
a(F-111.68895963282699
F7.3979999999999997
tp175
a(F-111.701188340358
F7.5440000000000005
tp176
a(F-111.713335876375
F7.4560000000000004
tp177
a(F-111.72540274424399
F7.3799999999999999
tp178
a(F-111.73738944387399
F7.3739999999999997
tp179
a(F-111.749296472773
F7.4409999999999998
tp180
a(F-111.76112432523
F9.343
tp181
a(F-111.772873492419
F7.7389999999999999
tp182
a(F-111.78454446277
F7.4829999999999997
tp183
a(F-111.796137721763
F7.4409999999999998
tp184
a(F-111.80765375159299
F7.5060000000000002
tp185
a(F-111.819093032056
F7.9610000000000003
tp186
a(F-111.830456039978
F8.3000000000000007
tp187
a(F-111.84174324979
F7.6230000000000002
tp188
a(F-111.85295513116699
F7.556
tp189
a(F-111.864092152899
F7.625
tp190
a(F-111.875154780681
F8.7449999999999992
tp191
a(F-111.886143476943
F7.3769999999999998
tp192
a(F-111.897058701662
F7.6699999999999999
tp193
a(F-111.907900911854
F7.4089999999999998
tp194
a(F-111.918670561892
F7.4059999999999997
tp195
a(F-111.929368103529
F7.3860000000000001
tp196
a(F-111.939993985743
F7.4290000000000003
tp197
a(F-111.950548654906
F7.4489999999999998
tp198
a(F-111.96103255428299
F7.8609999999999998
tp199
a(F-111.97144612520199
F7.5590000000000002
tp200
a(F-111.98178980577499
F7.3860000000000001
tp201
a(F-111.99206403197699
F7.4009999999999998
tp202
a(F-112.00226923665601
F7.4169999999999998
tp203
a(F-112.01240585037699
F6.9879999999999995
tp204
a(F-112.022474302151
F7.2379999999999995
tp205
a(F-112.032475016071
F7.2450000000000001
tp206
a(F-112.042408415203
F6.9480000000000004
tp207
a(F-112.052274919914
F7.3120000000000003
tp208
a(F-112.062074947762
F7.0860000000000003
tp209
a(F-112.07180891428899
F6.9299999999999997
tp210
a(F-112.081477231992
F6.9370000000000003
tp211
a(F-112.091080311459
F6.9640000000000004
tp212
a(F-112.100618560252
F7.5440000000000005
tp213
a(F-112.11009238372201
F7.0149999999999997
tp214
a(F-112.119502184876
F6.9240000000000004
tp215
a(F-112.128848364082
F6.9290000000000003
tp216
a(F-112.138131319425
F8.7149999999999999
tp217
a(F-112.147351446545
F6.9100000000000001
tp218
a(F-112.156509138602
F7.5649999999999995
tp219
a(F-112.16560478644701
F6.9379999999999997
tp220
a(F-112.174638778529
F6.931
tp221
a(F-112.1836115009
F7.3220000000000001
tp222
a(F-112.192523337208
F6.9619999999999997
tp223
a(F-112.201374668843
F6.9969999999999999
tp224
a(F-112.210165874832
F6.907
tp225
a(F-112.218897331886
F6.9649999999999999
tp226
a(F-112.22756941431599
F7.165
tp227
a(F-112.236182494101
F7.117
tp228
a(F-112.244736941027
F7.0810000000000004
tp229
a(F-112.253233122542
F7.0830000000000002
tp230
a(F-112.261671403761
F6.9240000000000004
tp231
a(F-112.270052147548
F6.9450000000000003
tp232
a(F-112.278375714533
F7.0869999999999997
tp233
a(F-112.28664246304101
F6.9290000000000003
tp234
a(F-112.29485274921799
F7.5590000000000002
tp235
a(F-112.30300692685699
F7.8289999999999997
tp236
a(F-112.311105347712
F6.968
tp237
a(F-112.31914836109701
F7.109
tp238
a(F-112.327136314336
F6.984
tp239
a(F-112.335069552421
F6.96
tp240
a(F-112.34294841811101
F6.9059999999999997
tp241
a(F-112.350773252048
F6.9550000000000001
tp242
a(F-112.35854439286901
F6.9320000000000004
tp243
a(F-112.366262176779
F6.96
tp244
a(F-112.373926938075
F6.9459999999999997
tp245
a(F-112.38153900876
F7.0910000000000002
tp246
a(F-112.389098718722
F7.2439999999999998
tp247
a(F-112.396606395931
F6.9240000000000004
tp248
a(F-112.404062365982
F6.9500000000000002
tp249
a(F-112.411466952533
F7.7290000000000001
tp250
a(F-112.418820477244
F7.0179999999999998
tp251
a(F-112.426123259511
F8.2200000000000006
tp252
a(F-112.433375616817
F6.9870000000000001
tp253
a(F-112.440577864552
F80.174999999999997
tp254
a(F-112.44773031602899
F7.0110000000000001
tp255
a(F-112.454833282717
F7.0140000000000002
tp256
a(F-112.46188707392299
F7.2249999999999996
tp257
a(F-112.468891996887
F7.0410000000000004
tp258
a(F-112.47584835712
F7.1859999999999999
tp259
a(F-112.482756458
F7.0030000000000001
tp260
a(F-112.48961660088401
F7.0330000000000004
tp261
a(F-112.496429085416
F7.2229999999999999
tp262
a(F-112.503194209068
F8.2789999999999999
tp263
a(F-112.509912267598
F7.4269999999999996
tp264
a(F-112.516583554748
F7.085
tp265
a(F-112.52320836230599
F7.1059999999999999
tp266
a(F-112.529786980358
F6.9850000000000003
tp267
a(F-112.536319696964
F7.0590000000000002
tp268
a(F-112.542806798472
F7.0460000000000003
tp269
a(F-112.54924856923
F7.077
tp270
a(F-112.555645291904
F7.1299999999999999
tp271
a(F-112.561997247668
F7.0389999999999997
tp272
a(F-112.568304714777
F7.0170000000000003
tp273
a(F-112.574567970864
F7.3179999999999996
tp274
a(F-112.58078729128999
F7.0179999999999998
tp275
a(F-112.586962949865
F7.5999999999999996
tp276
a(F-112.593095218467
F7.173
tp277
a(F-112.599184367299
F6.9530000000000003
tp278
a(F-112.605230664904
F6.9829999999999997
tp279
a(F-112.611234378034
F6.992
tp280
a(F-112.617195771769
F7.4669999999999996
tp281
a(F-112.62311510950499
F7.0010000000000003
tp282
a(F-112.62899265308501
F7.0380000000000003
tp283
a(F-112.6348286625
F7.0650000000000004
tp284
a(F-112.64062339610599
F7.194
tp285
a(F-112.64637711098101
F6.9779999999999998
tp286
a(F-112.65208997098399
F7.423
tp287
a(F-112.657762410876
F7.5359999999999996
tp288
a(F-112.66339459266899
F7.4939999999999998
tp289
a(F-112.668986861836
F7.1929999999999996
tp290
a(F-112.674539182107
F7.4960000000000004
tp291
a(F-112.68005208580099
F7.7009999999999996
tp292
a(F-112.68552572372499
F8.5
tp293
a(F-112.690960340109
F7.6890000000000001
tp294
a(F-112.696356177678
F7.7350000000000003
tp295
a(F-112.70171347749201
F7.4260000000000002
tp296
a(F-112.707032479372
F7.5140000000000002
tp297
a(F-112.712313421445
F8.0820000000000007
tp298
a(F-112.717556540402
F7.4509999999999996
tp299
a(F-112.722762071547
F7.5460000000000003
tp300
a(F-112.72793024888399
F7.5529999999999999
tp301
a(F-112.733061304347
F8.8780000000000001
tp302
a(F-112.73815546905401
F7.4119999999999999
tp303
a(F-112.74321297259399
F7.4859999999999998
tp304
a(F-112.748234058362
F7.016
tp305
a(F-112.753218922171
F7.625
tp306
a(F-112.758167804805
F6.968
tp307
a(F-112.763080930252
F7.0190000000000001
tp308
a(F-112.76795852096301
F7.2569999999999997
tp309
a(F-112.772800798193
F7.0250000000000004
tp310
a(F-112.77760798175299
F7.1299999999999999
tp311
a(F-112.782380290097
F7.1020000000000003
tp312
a(F-112.787117940036
F9.5939999999999994
tp313
a(F-112.791821148091
F7.1980000000000004
tp314
a(F-112.79649012844
F7.1340000000000003
tp315
a(F-112.801125094273
F7.3209999999999997
tp316
a(F-112.805726257445
F7.0720000000000001
tp317
a(F-112.810293828618
F6.9809999999999999
tp318
a(F-112.814828017053
F6.9489999999999998
tp319
a(F-112.819329030802
F7.0339999999999998
tp320
a(F-112.823797076636
F7.3399999999999999
tp321
a(F-112.82823236010201
F6.984
tp322
a(F-112.83263508545301
F7.3579999999999997
tp323
a(F-112.837005455747
F6.9800000000000004
tp324
a(F-112.84134367271101
F7.8949999999999996
tp325
a(F-112.84564993691799
F7.0730000000000004
tp326
a(F-112.84992444772899
F7.0110000000000001
tp327
a(F-112.854167363288
F8.3420000000000005
tp328
a(F-112.85837896016101
F7.5090000000000003
tp329
a(F-112.862559434679
F7.3799999999999999
tp330
a(F-112.86670890088701
F7.2640000000000002
tp331
a(F-112.870827551368
F8.7729999999999997
tp332
a(F-112.874915700874
F6.944
tp333
a(F-112.878973417772
F7.133
tp334
a(F-112.88300093273401
F7.8369999999999997
tp335
a(F-112.886998392818
F7.4359999999999999
tp336
a(F-112.89096611037
F6.9879999999999995
tp337
a(F-112.894904104453
F9.4169999999999998
tp338
a(F-112.898812686222
F7.5620000000000003
tp339
a(F-112.90269199774001
F9.1560000000000006
tp340
a(F-112.906542221953
F7.5270000000000001
tp341
a(F-112.910363540654
F7.431
tp342
a(F-112.91415617747199
F9.1159999999999997
tp343
a(F-112.917920182637
F7.5809999999999995
tp344
a(F-112.921655864025
F7.6479999999999997
tp345
a(F-112.925363355908
F7.7489999999999997
tp346
a(F-112.929042834396
F7.4870000000000001
tp347
a(F-112.932694474683
F7.5090000000000003
tp348
a(F-112.936318450714
F7.4109999999999996
tp349
a(F-112.93991493567199
F7.484
tp350
a(F-112.943484101257
F7.8650000000000002
tp351
a(F-112.947026118279
F7.8710000000000004
tp352
a(F-112.95054115657599
F9.3450000000000006
tp353
a(F-112.954029384832
F7.6550000000000002
tp354
a(F-112.95749101538399
F7.0549999999999997
tp355
a(F-112.96092608067799
F7.4139999999999997
tp356
a(F-112.964334880387
F7.5649999999999995
tp357
a(F-112.967717579216
F6.9279999999999999
tp358
a(F-112.971074205962
F7.4020000000000001
tp359
a(F-112.97440505766799
F7.883
tp360
a(F-112.97771029601699
F6.9909999999999997
tp361
a(F-112.980989946203
F7.8440000000000003
tp362
a(F-112.98424430276
F8.1340000000000003
tp363
a(F-112.98747347913999
F7.3920000000000003
tp364
a(F-112.990677632716
F7.4770000000000003
tp365
a(F-112.993856919629
F7.3890000000000002
tp366
a(F-112.99701149547001
F7.3860000000000001
tp367
a(F-113.000141514812
F7.4420000000000002
tp368
a(F-113.003247130867
F7.444
tp369
a(F-113.006328496222
F7.3810000000000002
tp370
a(F-113.009385762375
F7.4000000000000004
tp371
a(F-113.012419079826
F7.4180000000000001
tp372
a(F-113.015428598338
F7.5220000000000002
tp373
a(F-113.018414466425
F7.476
tp374
a(F-113.02137683181699
F7.3949999999999996
tp375
a(F-113.02431584137
F7.4160000000000004
tp376
a(F-113.02723164085801
F7.9160000000000004
tp377
a(F-113.030124375266
F7.9690000000000003
tp378
a(F-113.032994188546
F7.359
tp379
a(F-113.03584122371601
F7.3929999999999998
tp380
a(F-113.038665623193
F7.5919999999999996
tp381
a(F-113.04146752813899
F7.9879999999999995
tp382
a(F-113.044247078967
F7.6299999999999999
tp383
a(F-113.047004415226
F7.4420000000000002
tp384
a(F-113.049739675476
F7.6639999999999997
tp385
a(F-113.05245299764999
F7.4749999999999996
tp386
a(F-113.05514451841699
F11.041
tp387
a(F-113.057814373925
F7.4379999999999997
tp388
a(F-113.060462699323
F8.0239999999999991
tp389
a(F-113.063089628933
F7.5090000000000003
tp390
a(F-113.06569529625099
F7.3840000000000003
tp391
a(F-113.068279833893
F7.415
tp392
a(F-113.070843373911
F7.4030000000000005
tp393
a(F-113.073386046891
F7.5750000000000002
tp394
a(F-113.075907983216
F7.6530000000000005
tp395
a(F-113.078409312239
F7.4879999999999995
tp396
a(F-113.080890162521
F7.4690000000000003
tp397
a(F-113.08335066172
F7.3979999999999997
tp398
a(F-113.085790936885
F7.827
tp399
a(F-113.088211114107
F7.4669999999999996
tp400
a(F-113.090611318857
F7.8019999999999996
tp401
a(F-113.092991675649
F8.0510000000000002
tp402
a(F-113.09535230835201
F7.476
tp403
a(F-113.097693340039
F7.4729999999999999
tp404
a(F-113.10001489306801
F7.5010000000000003
tp405
a(F-113.102317088916
F7.4770000000000003
tp406
a(F-113.104600048365
F7.4450000000000003
tp407
a(F-113.106863891571
F7.4740000000000002
tp408
a(F-113.109108737772
F8.4900000000000002
tp409
a(F-113.11133470564999
F8.0730000000000004
tp410
a(F-113.113541912969
F7.3819999999999997
tp411
a(F-113.115730476999
F8.593
tp412
a(F-113.117900514086
F7.4740000000000002
tp413
a(F-113.120052139931
F7.6989999999999998
tp414
a(F-113.122185469596
F7.3570000000000002
tp415
a(F-113.1243006174
F7.851
tp416
a(F-113.126397697016
F7.4470000000000001
tp417
a(F-113.12847682133
F7.4809999999999999
tp418
a(F-113.13053810261501
F7.6669999999999998
tp419
a(F-113.132581652366
F7.3929999999999998
tp420
a(F-113.13460758167
F7.4580000000000002
tp421
a(F-113.136616000671
F7.4649999999999999
tp422
a(F-113.138607019061
F7.4340000000000002
tp423
a(F-113.140580745566
F7.367
tp424
a(F-113.142537288508
F7.468
tp425
a(F-113.144476755542
F7.4370000000000003
tp426
a(F-113.146399253666
F7.5819999999999999
tp427
a(F-113.148304889177
F7.8710000000000004
tp428
a(F-113.150193767755
F7.4470000000000001
tp429
a(F-113.15206599445401
F7.4409999999999998
tp430
a(F-113.15392167381
F7.4770000000000003
tp431
a(F-113.15576090956399
F7.6959999999999997
tp432
a(F-113.157583804975
F7.5659999999999998
tp433
a(F-113.15939046257
F7.5039999999999996
tp434
a(F-113.161180984377
F7.7889999999999997
tp435
a(F-113.162955471666
F7.3789999999999996
tp436
a(F-113.164714025328
F7.4030000000000005
tp437
a(F-113.166456745535
F7.4180000000000001
tp438
a(F-113.16818373184201
F7.3780000000000001
tp439
a(F-113.169895083193
F7.3620000000000001
tp440
a(F-113.17159089804601
F7.5220000000000002
tp441
a(F-113.17327127418
F7.399
tp442
a(F-113.17493630893701
F7.9989999999999997
tp443
a(F-113.17658609886701
F7.3949999999999996
tp444
a(F-113.178220740036
F7.8280000000000003
tp445
a(F-113.179840327384
F7.4290000000000003
tp446
a(F-113.181444956535
F7.3970000000000002
tp447
a(F-113.18303472184699
F7.3680000000000003
tp448
a(F-113.184609717154
F7.5069999999999997
tp449
a(F-113.18617003589399
F8.8819999999999997
tp450
a(F-113.18771577067901
F7.5750000000000002
tp451
a(F-113.189247013757
F7.3840000000000003
tp452
a(F-113.190763856773
F7.3789999999999996
tp453
a(F-113.192266390846
F8.9000000000000004
tp454
a(F-113.193754706465
F7.4859999999999998
tp455
a(F-113.195228893766
F7.6850000000000005
tp456
a(F-113.196689042253
F7.4779999999999998
tp457
a(F-113.198135240837
F7.7999999999999998
tp458
a(F-113.199567578116
F7.681
tp459
a(F-113.200986141836
F15.782
tp460
a(F-113.202391019449
F7.5250000000000004
tp461
a(F-113.20378229830099
F7.4299999999999997
tp462
a(F-113.205160063953
F8.4580000000000002
tp463
a(F-113.20652440264
F7.3689999999999998
tp464
a(F-113.20787539984499
F8.0079999999999991
tp465
a(F-113.209213140269
F7.3810000000000002
tp466
a(F-113.210537708391
F7.4139999999999997
tp467
a(F-113.211849187841
F7.468
tp468
a(F-113.213147662274
F7.4279999999999999
tp469
a(F-113.214433214446
F8.4019999999999992
tp470
a(F-113.21570592668
F7.46
tp471
a(F-113.216965880885
F7.3860000000000001
tp472
a(F-113.218213158414
F7.3979999999999997
tp473
a(F-113.219447840152
F7.3849999999999998
tp474
a(F-113.220670006598
F7.4299999999999997
tp475
a(F-113.22187973765099
F7.4989999999999997
tp476
a(F-113.223077112803
F7.343
tp477
a(F-113.224262211012
F7.3339999999999996
tp478
a(F-113.225435110807
F7.3490000000000002
tp479
a(F-113.22659589019401
F7.4210000000000003
tp480
a(F-113.227744626839
F7.3579999999999997
tp481
a(F-113.22888139789001
F7.3609999999999998
tp482
a(F-113.230006279877
F7.4109999999999996
tp483
a(F-113.231119348954
F8.6679999999999993
tp484
a(F-113.23222068096899
F7.4009999999999998
tp485
a(F-113.233310351163
F7.3550000000000004
tp486
a(F-113.234388434403
F7.4809999999999999
tp487
a(F-113.235455004925
F8.8070000000000004
tp488
a(F-113.23651013680001
F7.4459999999999997
tp489
a(F-113.23755390339799
F7.3319999999999999
tp490
a(F-113.23858637784799
F7.3840000000000003
tp491
a(F-113.239607632673
F7.3410000000000002
tp492
a(F-113.240617740072
F7.3259999999999996
tp493
a(F-113.241616771707
F7.3659999999999997
tp494
a(F-113.24260479887501
F7.6239999999999997
tp495
a(F-113.24358189245
F7.3570000000000002
tp496
a(F-113.244548122775
F7.4089999999999998
tp497
a(F-113.245503559903
F8.0649999999999995
tp498
a(F-113.246448273374
F8.468
tp499
a(F-113.247382332323
F7.7279999999999998
tp500
a(F-113.24830580544899
F7.3780000000000001
tp501
a(F-113.24921876104101
F7.6850000000000005
tp502
a(F-113.250121267057
F7.4480000000000004
tp503
a(F-113.251013390841
F7.3860000000000001
tp504
a(F-113.25189519953
F9.6709999999999994
tp505
a(F-113.252766759704
F7.3789999999999996
tp506
a(F-113.25362813769701
F7.6239999999999997
tp507
a(F-113.254479399285
F7.3739999999999997
tp508
a(F-113.255320609923
F7.4820000000000002
tp509
a(F-113.25615183459399
F8.7439999999999998
tp510
a(F-113.256973137983
F7.5010000000000003
tp511
a(F-113.257784584318
F8.2129999999999992
tp512
a(F-113.258586237415
F8.0389999999999997
tp513
a(F-113.25937816080901
F7.484
tp514
a(F-113.26016041755
F7.3540000000000001
tp515
a(F-113.26093307028999
F7.4619999999999997
tp516
a(F-113.261696181351
F8.0660000000000007
tp517
a(F-113.262449812707
F7.4080000000000004
tp518
a(F-113.263194025836
F7.3529999999999998
tp519
a(F-113.263928881985
F7.617
tp520
a(F-113.264654441899
F8.4450000000000003
tp521
a(F-113.265370766117
F7.4630000000000001
tp522
a(F-113.26607791465599
F7.726
tp523
a(F-113.26677594720201
F7.4180000000000001
tp524
a(F-113.267464923066
F8.2550000000000008
tp525
a(F-113.268144901311
F8.3770000000000007
tp526
a(F-113.268815940555
F8.4879999999999995
tp527
a(F-113.269478099098
F7.6239999999999997
tp528
a(F-113.270131434768
F7.5759999999999996
tp529
a(F-113.270776005307
F7.6079999999999997
tp530
a(F-113.271411867773
F8.2449999999999992
tp531
a(F-113.272039079294
F7.4850000000000003
tp532
a(F-113.272657696133
F7.6950000000000003
tp533
a(F-113.27326777471799
F7.4139999999999997
tp534
a(F-113.27386937080701
F7.4320000000000004
tp535
a(F-113.274462520697
F8.2609999999999992
tp536
a(F-113.275047318568
F8.3279999999999994
tp537
a(F-113.27562379973401
F7.9850000000000003
tp538
a(F-113.276192018541
F7.8019999999999996
tp539
a(F-113.276752029371
F8.3979999999999997
tp540
a(F-113.277303886102
F7.883
tp541
a(F-113.277847642239
F7.8120000000000003
tp542
a(F-113.278383351123
F7.7949999999999999
tp543
a(F-113.27891106573099
F8.0079999999999991
tp544
a(F-113.27943083868099
F7.8499999999999996
tp545
a(F-113.27994273020001
F7.5839999999999996
tp546
a(F-113.28044677519701
F7.3419999999999996
tp547
a(F-113.280943034714
F7.3330000000000002
tp548
a(F-113.281431560157
F7.5359999999999996
tp549
a(F-113.28191240264
F7.5380000000000003
tp550
a(F-113.282385612954
F7.4800000000000004
tp551
a(F-113.28285124169101
F7.3979999999999997
tp552
a(F-113.283309339
F7.3410000000000002
tp553
a(F-113.283759954836
F7.3949999999999996
tp554
a(F-113.284203138853
F7.6180000000000003
tp555
a(F-113.284638940417
F7.335
tp556
a(F-113.285067408625
F7.3689999999999998
tp557
a(F-113.285488592181
F7.484
tp558
a(F-113.285902539481
F7.5049999999999999
tp559
a(F-113.286309298985
F7.4349999999999996
tp560
a(F-113.286708918475
F7.4859999999999998
tp561
a(F-113.287101445697
F7.4139999999999997
tp562
a(F-113.28748692792701
F7.3360000000000003
tp563
a(F-113.287865412388
F7.4699999999999998
tp564
a(F-113.28823694594701
F7.3799999999999999
tp565
a(F-113.288601575019
F7.8010000000000002
tp566
a(F-113.28895934605001
F8.4380000000000006
tp567
a(F-113.289310304998
F7.923
tp568
a(F-113.28965449768501
F7.7569999999999997
tp569
a(F-113.289991969547
F7.4000000000000004
tp570
a(F-113.290322766099
F7.3570000000000002
tp571
a(F-113.29064693196599
F7.6440000000000001
tp572
a(F-113.290964511948
F8.1059999999999999
tp573
a(F-113.29127555063501
F7.3559999999999999
tp574
a(F-113.291580092167
F7.4950000000000001
tp575
a(F-113.29187818052699
F7.4189999999999996
tp576
a(F-113.292169859499
F8.2390000000000008
tp577
a(F-113.292455172454
F7.5430000000000001
tp578
a(F-113.29273416262301
F7.3730000000000002
tp579
a(F-113.293006872975
F7.4189999999999996
tp580
a(F-113.293273346224
F7.4080000000000004
tp581
a(F-113.29353362489999
F7.3079999999999998
tp582
a(F-113.293787751148
F7.4870000000000001
tp583
a(F-113.294035767021
F7.4119999999999999
tp584
a(F-113.294277714247
F7.5110000000000001
tp585
a(F-113.294513634252
F7.6299999999999999
tp586
a(F-113.294743568432
F7.3890000000000002
tp587
a(F-113.294967557787
F7.3570000000000002
tp588
a(F-113.29518564304701
F7.3259999999999996
tp589
a(F-113.295397864801
F7.4610000000000003
tp590
a(F-113.295604263458
F7.4059999999999997
tp591
a(F-113.295804879035
F8.0860000000000003
tp592
a(F-113.295999751438
F7.3550000000000004
tp593
a(F-113.296188920277
F7.657
tp594
a(F-113.296372425028
F7.4080000000000004
tp595
a(F-113.296550304899
F7.3129999999999997
tp596
a(F-113.29672259874
F7.4800000000000004
tp597
a(F-113.29688934538299
F9.3399999999999999
tp598
a(F-113.297050583326
F7.4589999999999996
tp599
a(F-113.297206350846
F7.3380000000000001
tp600
a(F-113.29735668605301
F7.9859999999999998
tp601
a(F-113.29750162681
F7.5510000000000002
tp602
a(F-113.297641210756
F7.327
tp603
a(F-113.29777547531
F8.1159999999999997
tp604
a(F-113.297904457645
F7.9889999999999999
tp605
a(F-113.29802819488
F7.3120000000000003
tp606
a(F-113.298146723625
F7.3760000000000003
tp607
a(F-113.298260080597
F7.3600000000000003
tp608
a(F-113.298368302146
F7.4359999999999999
tp609
a(F-113.29847142430199
F7.3789999999999996
tp610
a(F-113.29856948318201
F7.3799999999999999
tp611
a(F-113.298662514367
F7.4569999999999999
tp612
a(F-113.298750553499
F8.1219999999999999
tp613
a(F-113.298833635809
F7.3929999999999998
tp614
a(F-113.29891179648
F7.3710000000000004
tp615
a(F-113.29898507044
F7.4370000000000003
tp616
a(F-113.29905349234301
F7.835
tp617
a(F-113.299117096716
F7.391
tp618
a(F-113.29917591793399
F7.3310000000000004
tp619
a(F-113.29922998998499
F7.3879999999999999
tp620
a(F-113.299279346882
F7.3360000000000003
tp621
a(F-113.29932402231
F7.3860000000000001
tp622
a(F-113.299364049733
F7.7620000000000005
tp623
a(F-113.299399462526
F7.306
tp624
a(F-113.29943029380701
F7.359
tp625
a(F-113.29945657644799
F7.391
tp626
a(F-113.299478343226
F7.3840000000000003
tp627
a(F-113.299495626671
F8.0180000000000007
tp628
a(F-113.299508459142
F7.7169999999999996
tp629
a(F-113.299516872783
F7.3380000000000001
tp630
a(F-113.299520899497
F7.4749999999999996
tp631
a(F-113.299520571193
F7.4740000000000002
tp632
a(F-113.29951591935099
F9.6579999999999995
tp633
a(F-113.299506975417
F7.4530000000000003
tp634
a(F-113.299493770552
F7.508
tp635
a(F-113.299476335836
F7.3310000000000004
tp636
a(F-113.299454701999
F7.4020000000000001
tp637
a(F-113.299428899855
F7.5300000000000002
tp638
a(F-113.299398959781
F11.965
tp639
a(F-113.299364912022
F7.6420000000000003
tp640
a(F-113.299326786753
F7.351
tp641
a(F-113.299284613872
F7.3129999999999997
tp642
a(F-113.299238423091
F7.9859999999999998
tp643
a(F-113.29918824399201
F8.1300000000000008
tp644
a(F-113.29913410594099
F7.3250000000000002
tp645
a(F-113.299076038211
F7.3689999999999998
tp646
a(F-113.299014069737
F7.3099999999999996
tp647
a(F-113.29894822938699
F8.4610000000000003
tp648
a(F-113.298878545815
F7.3179999999999996
tp649
a(F-113.29880504761
F8.0459999999999994
tp650
a(F-113.298727763043
F7.3390000000000004
tp651
a(F-113.298646720224
F7.8390000000000004
tp652
a(F-113.29856194726401
F7.4829999999999997
tp653
a(F-113.29847347181899
F8.5259999999999998
tp654
a(F-113.298381321565
F7.3310000000000004
tp655
a(F-113.298285523975
F7.2999999999999998
tp656
a(F-113.29818610640901
F8.9740000000000002
tp657
a(F-113.29808309597399
F7.4729999999999999
tp658
a(F-113.29797651960401
F7.3929999999999998
tp659
a(F-113.297866404123
F7.3780000000000001
tp660
a(F-113.297752776205
F8.3230000000000004
tp661
a(F-113.297635662296
F7.6719999999999997
tp662
a(F-113.29751508874701
F8.6609999999999996
tp663
a(F-113.297391081649
F7.2859999999999996
tp664
a(F-113.297263667077
F7.2930000000000001
tp665
a(F-113.297132870845
F7.2859999999999996
tp666
a(F-113.296998718528
F7.2990000000000004
tp667
a(F-113.296861235805
F7.3360000000000003
tp668
a(F-113.296720447901
F7.476
tp669
a(F-113.296576380101
F7.7789999999999999
tp670
a(F-113.296429057417
F7.4030000000000005
tp671
a(F-113.29627850471
F7.5969999999999995
tp672
a(F-113.296124746861
F7.5590000000000002
tp673
a(F-113.29596780839501
F7.335
tp674
a(F-113.29580771372
F7.415
tp675
a(F-113.295644486839
F7.3090000000000002
tp676
a(F-113.295478152481
F8.0790000000000006
tp677
a(F-113.295308734397
F7.556
tp678
a(F-113.29513625643401
F7.4580000000000002
tp679
a(F-113.294960742256
F8.9860000000000007
tp680
a(F-113.294782215439
F7.5600000000000005
tp681
a(F-113.29460069942699
F7.4349999999999996
tp682
a(F-113.29441621743101
F7.8469999999999995
tp683
a(F-113.294228792604
F7.3689999999999998
tp684
a(F-113.29403844798701
F7.6859999999999999
tp685
a(F-113.29384520638899
F7.4379999999999997
tp686
a(F-113.29364909047401
F7.3600000000000003
tp687
a(F-113.293450122799
F7.7510000000000003
tp688
a(F-113.29324832591099
F7.484
tp689
a(F-113.293043722012
F7.3170000000000002
tp690
a(F-113.29283633327501
F7.4020000000000001
tp691
a(F-113.292626181811
F7.3109999999999999
tp692
a(F-113.292413289365
F7.3390000000000004
tp693
a(F-113.292197677852
F7.8760000000000003
tp694
a(F-113.291979368849
F7.6059999999999999
tp695
a(F-113.291758383879
F7.3330000000000002
tp696
a(F-113.29153474430299
F7.5330000000000004
tp697
a(F-113.29130847131201
F7.3520000000000003
tp698
a(F-113.29107958609001
F8.048
tp699
a(F-113.29084810957001
F7.6159999999999997
tp700
a(F-113.290614062759
F7.3289999999999997
tp701
a(F-113.29037746628001
F7.8399999999999999
tp702
a(F-113.29013834071699
F7.3920000000000003
tp703
a(F-113.28989670672399
F7.6420000000000003
tp704
a(F-113.28965258460001
F9.5689999999999991
tp705
a(F-113.28940599456099
F8.3460000000000001
tp706
a(F-113.289156956819
F7.4050000000000002
tp707
a(F-113.288905491406
F8.5980000000000008
tp708
a(F-113.28865161812099
F7.593
tp709
a(F-113.288395356878
F7.3079999999999998
tp710
a(F-113.288136727235
F7.3369999999999997
tp711
a(F-113.287875748847
F7.7359999999999998
tp712
a(F-113.287612441123
F7.4610000000000003
tp713
a(F-113.287346823391
F7.508
tp714
a(F-113.28707891485701
F8.2110000000000003
tp715
a(F-113.2868087347
F8.0519999999999996
tp716
a(F-113.28653630180401
F8.1620000000000008
tp717
a(F-113.28626163508901
F7.4189999999999996
tp718
a(F-113.28598475335799
F7.4660000000000002
tp719
a(F-113.285705675202
F7.7400000000000002
tp720
a(F-113.28542441923
F7.694
tp721
a(F-113.28514100389199
F7.3140000000000001
tp722
a(F-113.28485544750799
F7.3929999999999998
tp723
a(F-113.284567768269
F9.3539999999999992
tp724
a(F-113.284277984398
F7.3620000000000001
tp725
a(F-113.28398611384701
F7.4370000000000003
tp726
a(F-113.283692174487
F7.3849999999999998
tp727
a(F-113.28339618419
F8.0939999999999994
tp728
a(F-113.283098160728
F7.5629999999999997
tp729
a(F-113.282798121535
F7.96
tp730
a(F-113.282496084201
F7.7210000000000001
tp731
a(F-113.282192066078
F7.476
tp732
a(F-113.281886084455
F7.8239999999999998
tp733
a(F-113.28157815655101
F7.8339999999999996
tp734
a(F-113.281268299391
F7.5330000000000004
tp735
a(F-113.28095653011
F7.2809999999999997
tp736
a(F-113.280642865424
F7.4050000000000002
tp737
a(F-113.280327322194
F8.2590000000000003
tp738
a(F-113.280009917104
F7.3719999999999999
tp739
a(F-113.27969066672701
F7.3730000000000002
tp740
a(F-113.27936958751501
F7.4000000000000004
tp741
a(F-113.27904669589699
F8.4809999999999999
tp742
a(F-113.278722008155
F7.2750000000000004
tp743
a(F-113.278395540491
F10.829000000000001
tp744
a(F-113.27806730898899
F7.2949999999999999
tp745
a(F-113.277737329679
F7.4400000000000004
tp746
a(F-113.277405319549
F7.7919999999999998
tp747
a(F-113.277071897634
F8.0709999999999997
tp748
a(F-113.27673677526199
F7.9160000000000004
tp749
a(F-113.276399968443
F7.883
tp750
a(F-113.27606149203901
F7.8309999999999995
tp751
a(F-113.275721361756
F9.907
tp752
a(F-113.27537959294899
F8.9689999999999994
tp753
a(F-113.275036169991
F8.4220000000000006
tp754
a(F-113.27469117083299
F7.4109999999999996
tp755
a(F-113.274344578502
F7.3019999999999996
tp756
a(F-113.273996407813
F7.4829999999999997
tp757
a(F-113.273646673746
F7.6390000000000002
tp758
a(F-113.27329537257999
F7.8280000000000003
tp759
a(F-113.272942555805
F7.8019999999999996
tp760
a(F-113.272588220042
F7.7309999999999999
tp761
a(F-113.272232379781
F7.8049999999999997
tp762
a(F-113.271875049472
F7.7789999999999999
tp763
a(F-113.271516243519
F7.7869999999999999
tp764
a(F-113.271155976222
F7.7679999999999998
tp765
a(F-113.270794261636
F7.8659999999999997
tp766
a(F-113.270431114042
F7.835
tp767
a(F-113.27006654736201
F7.8849999999999998
tp768
a(F-113.26970057556601
F7.8520000000000003
tp769
a(F-113.26933321245799
F7.8280000000000003
tp770
a(F-113.268964471876
F9.6170000000000009
tp771
a(F-113.26859436743899
F7.718
tp772
a(F-113.26822291282301
F7.8239999999999998
tp773
a(F-113.267850121503
F8.2249999999999996
tp774
a(F-113.267476006975
F7.9690000000000003
tp775
a(F-113.267100582438
F7.7069999999999999
tp776
a(F-113.266723861391
F8.1690000000000005
tp777
a(F-113.26634585690201
F8.798
tp778
a(F-113.265966582022
F7.7910000000000004
tp779
a(F-113.265586049821
F8.2469999999999999
tp780
a(F-113.265204273243
F7.9669999999999996
tp781
a(F-113.2648212651
F7.835
tp782
a(F-113.264437038227
F9.3979999999999997
tp783
a(F-113.264051605204
F8.7539999999999996
tp784
a(F-113.263664978713
F8.0920000000000005
tp785
a(F-113.263277171277
F7.9160000000000004
tp786
a(F-113.262888195237
F7.8440000000000003
tp787
a(F-113.262498063005
F7.8499999999999996
tp788
a(F-113.26210678683201
F7.75
tp789
a(F-113.261714378805
F7.875
tp790
a(F-113.261320851207
F7.766
tp791
a(F-113.260926215857
F8.7799999999999994
tp792
a(F-113.260530484749
F7.7569999999999997
tp793
a(F-113.260133669746
F7.8700000000000001
tp794
a(F-113.259735782628
F7.8390000000000004
tp795
a(F-113.259336835037
F7.7370000000000001
tp796
a(F-113.258936838564
F7.7770000000000001
tp797
a(F-113.25853580482099
F7.8440000000000003
tp798
a(F-113.258133745216
F11.202999999999999
tp799
a(F-113.25773067112701
F8.2989999999999995
tp800
a(F-113.25732659387199
F7.9960000000000004
tp801
a(F-113.25692152469099
F8.6679999999999993
tp802
a(F-113.256515474688
F7.8140000000000001
tp803
a(F-113.25610845502401
F11.106999999999999
tp804
a(F-113.255700476703
F7.7880000000000003
tp805
a(F-113.25529155063199
F9.0839999999999996
tp806
a(F-113.254881687717
F7.7460000000000004
tp807
a(F-113.25447089880301
F8.3450000000000006
tp808
a(F-113.254059194639
F8.1699999999999999
tp809
a(F-113.253646585897
F7.7629999999999999
tp810
a(F-113.25323308322101
F7.7300000000000004
tp811
a(F-113.252818697151
F7.8200000000000003
tp812
a(F-113.25240343817001
F7.8970000000000002
tp813
a(F-113.25198731671
F9.3460000000000001
tp814
a(F-113.251570343198
F7.7409999999999997
tp815
a(F-113.251152527695
F7.8230000000000004
tp816
a(F-113.25073388077701
F7.9559999999999995
tp817
a(F-113.250314412553
F7.798
tp818
a(F-113.24989413311199
F8.202
tp819
a(F-113.249473052361
F7.9489999999999998
tp820
a(F-113.249051180442
F7.694
tp821
a(F-113.248628527221
F7.8140000000000001
tp822
a(F-113.248205102635
F7.875
tp823
a(F-113.247780916379
F7.7370000000000001
tp824
a(F-113.247355978279
F7.9889999999999999
tp825
a(F-113.246930297929
F7.7160000000000002
tp826
a(F-113.24650388506601
F7.7539999999999996
tp827
a(F-113.24607674903299
F7.8140000000000001
tp828
a(F-113.24564889939199
F7.875
tp829
a(F-113.24522034558299
F7.8929999999999998
tp830
a(F-113.244791096827
F8.0199999999999996
tp831
a(F-113.24436116245499
F7.7149999999999999
tp832
a(F-113.243930551517
F7.7910000000000004
tp833
a(F-113.24349927326899
F7.8200000000000003
tp834
a(F-113.243067336807
F9.2149999999999999
tp835
a(F-113.24263475105001
F7.8520000000000003
tp836
a(F-113.242201524945
F7.9089999999999998
tp837
a(F-113.24176766738201
F7.7999999999999998
tp838
a(F-113.241333187284
F7.7759999999999998
tp839
a(F-113.240898093371
F7.7930000000000001
tp840
a(F-113.240462394513
F8.1400000000000006
tp841
a(F-113.240026099283
F8.423
tp842
a(F-113.23958921641901
F7.7450000000000001
tp843
a(F-113.239151754494
F7.7699999999999996
tp844
a(F-113.238713722185
F7.7780000000000005
tp845
a(F-113.238275127772
F7.7050000000000001
tp846
a(F-113.237835979935
F7.7599999999999998
tp847
a(F-113.23739628688099
F8.657
tp848
a(F-113.236956056914
F7.7999999999999998
tp849
a(F-113.236515298399
F8.8000000000000007
tp850
a(F-113.23607401948399
F7.8870000000000005
tp851
a(F-113.235632228239
F8.5410000000000004
tp852
a(F-113.23518993270299
F7.9710000000000001
tp853
a(F-113.234747140913
F7.8789999999999996
tp854
a(F-113.234303860718
F7.7880000000000003
tp855
a(F-113.233860099993
F8.0489999999999995
tp856
a(F-113.233415866532
F7.9900000000000002
tp857
a(F-113.232971168033
F8.0239999999999991
tp858
a(F-113.232526012137
F7.8440000000000003
tp859
a(F-113.23208040657001
F8.1349999999999998
tp860
a(F-113.231634358759
F7.9030000000000005
tp861
a(F-113.231187876257
F8.5969999999999995
tp862
a(F-113.23074096652201
F7.9009999999999998
tp863
a(F-113.230293636977
F7.8449999999999998
tp864
a(F-113.229845894837
F8
tp865
a(F-113.22939774749899
F7.8700000000000001
tp866
a(F-113.228949464005
F8.4890000000000008
tp867
a(F-113.22850052922099
F8.423
tp868
a(F-113.22805121063
F8.5250000000000004
tp869
a(F-113.227601515164
F8.8189999999999991
tp870
a(F-113.227151450099
F8.5609999999999999
tp871
a(F-113.226701022334
F8.6069999999999993
tp872
a(F-113.22625023894599
F8.3209999999999997
tp873
a(F-113.225799106935
F8.3940000000000001
tp874
a(F-113.225347633236
F8.5329999999999995
tp875
a(F-113.224895824444
F8.4710000000000001
tp876
a(F-113.224443687804
F8.3260000000000005
tp877
a(F-113.22399122959
F8.4559999999999995
tp878
a(F-113.223538456965
F8.3599999999999994
tp879
a(F-113.223085376322
F8.9580000000000002
tp880
a(F-113.222631994548
F8.484
tp881
a(F-113.22217831804601
F8.3049999999999997
tp882
a(F-113.221724353365
F8.3219999999999992
tp883
a(F-113.22127010699199
F8.3930000000000007
tp884
a(F-113.220815585463
F8.3960000000000008
tp885
a(F-113.22036079511901
F8.2599999999999998
tp886
a(F-113.219905743266
F8.4090000000000007
tp887
a(F-113.21945043563299
F8.5749999999999993
tp888
a(F-113.218994878525
F8.7789999999999999
tp889
a(F-113.218539077968
F8.5069999999999997
tp890
a(F-113.218083040351
F8.5030000000000001
tp891
a(F-113.217626771596
F8.6300000000000008
tp892
a(F-113.217170277912
F8.359
tp893
a(F-113.216713565204
F9.2929999999999993
tp894
a(F-113.21625663941801
F8.3040000000000003
tp895
a(F-113.215799506639
F8.375
tp896
a(F-113.21534217248301
F8.3119999999999994
tp897
a(F-113.214884642903
F9.4130000000000003
tp898
a(F-113.21442692363701
F9.0950000000000006
tp899
a(F-113.213969020455
F8.7829999999999995
tp900
a(F-113.213510938977
F8.6969999999999992
tp901
a(F-113.21305268520599
F8.4640000000000004
tp902
a(F-113.212594264628
F8.8409999999999993
tp903
a(F-113.21213568301
F8.5039999999999996
tp904
a(F-113.21167694591099
F8.4640000000000004
tp905
a(F-113.21121805889899
F8.2420000000000009
tp906
a(F-113.21075902764299
F8.5399999999999991
tp907
a(F-113.210299857743
F9.0169999999999995
tp908
a(F-113.209840554821
F8.4120000000000008
tp909
a(F-113.20938112442199
F8.1699999999999999
tp910
a(F-113.20892157220101
F8.2080000000000002
tp911
a(F-113.208461903607
F8.7639999999999993
tp912
a(F-113.208002124082
F8.9079999999999995
tp913
a(F-113.207542239006
F8.3360000000000003
tp914
a(F-113.20708225345901
F8.3260000000000005
tp915
a(F-113.206622172691
F8.5510000000000002
tp916
a(F-113.206162001767
F8.4619999999999997
tp917
a(F-113.205701745743
F8.2590000000000003
tp918
a(F-113.205241409666
F8.5739999999999998
tp919
a(F-113.204780998741
F8.8930000000000007
tp920
a(F-113.20432051804499
F8.3659999999999997
tp921
a(F-113.20385997373199
F8.2509999999999994
tp922
a(F-113.203399530136
F8.7509999999999994
tp923
a(F-113.202938895945
F8.7110000000000003
tp924
a(F-113.202478188999
F8.8369999999999997
tp925
a(F-113.202017379922
F9.375
tp926
a(F-113.20155664347099
F9.1980000000000004
tp927
a(F-113.20109550764001
F8.3089999999999993
tp928
a(F-113.20063466853
F8.4260000000000002
tp929
a(F-113.20017414745099
F9.2769999999999992
tp930
a(F-113.19971324405201
F8.6780000000000008
tp931
a(F-113.199252336794
F8.6880000000000006
tp932
a(F-113.198791379757
F8.7430000000000003
tp933
a(F-113.19833040507601
F10.755000000000001
tp934
a(F-113.197869435063
F8.7259999999999991
tp935
a(F-113.197408363383
F8.1989999999999998
tp936
a(F-113.196947409705
F8.9759999999999991
tp937
a(F-113.19648661023901
F8.9109999999999996
tp938
a(F-113.196025671836
F8.1950000000000003
tp939
a(F-113.195564653399
F8.2460000000000004
tp940
a(F-113.195103924889
F11.27
tp941
a(F-113.194642524287
F8.2569999999999997
tp942
a(F-113.194181882815
F8.2219999999999995
tp943
a(F-113.193721237711
F15.654
tp944
a(F-113.193260775597
F8.6050000000000004
tp945
a(F-113.192799875757
F8.1999999999999993
tp946
a(F-113.192339439192
F8.2110000000000003
tp947
a(F-113.19187892532
F8.3170000000000002
tp948
a(F-113.191418416448
F8.1449999999999996
tp949
a(F-113.19095794856101
F8.1630000000000003
tp950
a(F-113.190497545649
F9.6470000000000002
tp951
a(F-113.19003721481999
F8.1980000000000004
tp952
a(F-113.189576959348
F9.0169999999999995
tp953
a(F-113.189116782081
F8.3490000000000002
tp954
a(F-113.188656685653
F8.5370000000000008
tp955
a(F-113.188196673105
F8.7889999999999997
tp956
a(F-113.187736747703
F8.4440000000000008
tp957
a(F-113.18727691318
F8.7599999999999998
tp958
a(F-113.186817173507
F8.4060000000000006
tp959
a(F-113.18635753236499
F8.2710000000000008
tp960
a(F-113.185897993983
F8.1449999999999996
tp961
a(F-113.18543827972699
F8.3019999999999996
tp962
a(F-113.184979025603
F8.3979999999999997
tp963
a(F-113.184519870766
F8.4320000000000004
tp964
a(F-113.184060819237
F8.2569999999999997
tp965
a(F-113.183602245256
F7.6619999999999999
tp966
a(F-113.183143377703
F7.6600000000000001
tp967
a(F-113.18268465519
F9.9909999999999997
tp968
a(F-113.18222608056099
F7.7679999999999998
tp969
a(F-113.181767656509
F7.8650000000000002
tp970
a(F-113.18130938542301
F7.7640000000000002
tp971
a(F-113.18085126946799
F7.7729999999999997
tp972
a(F-113.180392803147
F9.1219999999999999
tp973
a(F-113.179934905153
F8.2560000000000002
tp974
a(F-113.179477149961
F8.3320000000000007
tp975
a(F-113.179019541408
F8.4269999999999996
tp976
a(F-113.17856208690699
F8.7870000000000008
tp977
a(F-113.178104803669
F8.5449999999999999
tp978
a(F-113.17764771641799
F8.2010000000000005
tp979
a(F-113.177190840424
F8.1880000000000006
tp980
a(F-113.176734165669
F8.3070000000000004
tp981
a(F-113.176277678917
F8.4629999999999992
tp982
a(F-113.175821371881
F8.157
tp983
a(F-113.175365227906
F8.5649999999999995
tp984
a(F-113.174909239336
F8.2910000000000004
tp985
a(F-113.174453417547
F8.3019999999999996
tp986
a(F-113.173997775085
F8.3919999999999995
tp987
a(F-113.173542319749
F8.3829999999999991
tp988
a(F-113.17308705725
F8.3829999999999991
tp989
a(F-113.172631989192
F8.1720000000000006
tp990
a(F-113.172177092236
F8.2170000000000005
tp991
a(F-113.171722289404
F8.0860000000000003
tp992
a(F-113.171267738403
F8.2189999999999994
tp993
a(F-113.17081349191599
F8.1150000000000002
tp994
a(F-113.170359445195
F8.2149999999999999
tp995
a(F-113.16990591031799
F8.2910000000000004
tp996
a(F-113.16945234130699
F8.2349999999999994
tp997
a(F-113.168998940618
F8.1229999999999993
tp998
a(F-113.168545690212
F8.2599999999999998
tp999
a(F-113.16809260003799
F8.2539999999999996
tp1000
a(F-113.167639821279
F8.2579999999999991
tp1001
a(F-113.167187412328
F8.1790000000000003
tp1002
a(F-113.16673523462801
F7.3469999999999995
tp1003
a(F-113.166283046168
F8.2460000000000004
tp1004
a(F-113.165831403466
F8.468
tp1005
a(F-113.165380014237
F8.2270000000000003
tp1006
a(F-113.16492869943301
F8.2230000000000008
tp1007
a(F-113.164477627086
F8.4280000000000008
tp1008
a(F-113.16402679960601
F8.2880000000000003
tp1009
a(F-113.16357621907299
F8.3569999999999993
tp1010
a(F-113.163125887983
F8.4399999999999995
tp1011
a(F-113.16267580815899
F8.8420000000000005
tp1012
a(F-113.162225982069
F8.2850000000000001
tp1013
a(F-113.161776411536
F8.1649999999999991
tp1014
a(F-113.16132709892
F9.1809999999999992
tp1015
a(F-113.160878046365
F8.1579999999999995
tp1016
a(F-113.160429255821
F8.8019999999999996
tp1017
a(F-113.159980729238
F8.0999999999999996
tp1018
a(F-113.159532468861
F8.6430000000000007
tp1019
a(F-113.159084476703
F10.532
tp1020
a(F-113.15863675458201
F8.1140000000000008
tp1021
a(F-113.158189304838
F8.2710000000000008
tp1022
a(F-113.15774212939699
F8.0890000000000004
tp1023
a(F-113.157295230093
F9.1690000000000005
tp1024
a(F-113.156848609259
F8.3100000000000005
tp1025
a(F-113.15640226882699
F8.2449999999999992
tp1026
a(F-113.155956210729
F8.2370000000000001
tp1027
a(F-113.15551043725701
F8.0649999999999995
tp1028
a(F-113.15506495050199
F8.0969999999999995
tp1029
a(F-113.154619752773
F8.1950000000000003
tp1030
a(F-113.15417484644701
F8.0950000000000006
tp1031
a(F-113.15373023403799
F8.1780000000000008
tp1032
a(F-113.153285918539
F8.0549999999999997
tp1033
a(F-113.152841903069
F8.3019999999999996
tp1034
a(F-113.152398191389
F8.1359999999999992
tp1035
a(F-113.151954787283
F8.25
tp1036
a(F-113.15151169443401
F8.1170000000000009
tp1037
a(F-113.151068915254
F8.1370000000000005
tp1038
a(F-113.150626450264
F8.1020000000000003
tp1039
a(F-113.150184296763
F8.3089999999999993
tp1040
a(F-113.14974244954701
F8.3140000000000001
tp1041
a(F-113.149300626707
F8.5899999999999999
tp1042
a(F-113.148859244395
F8.5090000000000003
tp1043
a(F-113.148417860514
F9.0150000000000006
tp1044
a(F-113.147977197533
F8.9730000000000008
tp1045
a(F-113.147537099305
F8.8379999999999992
tp1046
a(F-113.14709704817599
F8.9759999999999991
tp1047
a(F-113.14665729126899
F8.5340000000000007
tp1048
a(F-113.146217799087
F8.6210000000000004
tp1049
a(F-113.14577824955499
F8.5800000000000001
tp1050
a(F-113.145339652063
F9.2449999999999992
tp1051
a(F-113.14490100875
F8.5570000000000004
tp1052
a(F-113.144463075188
F8.5419999999999998
tp1053
a(F-113.144025314541
F8.7319999999999993
tp1054
a(F-113.14358781844101
F8.75
tp1055
a(F-113.14315063001899
F8.5389999999999997
tp1056
a(F-113.142713764258
F8.5739999999999998
tp1057
a(F-113.142277494856
F8.1760000000000002
tp1058
a(F-113.141841127276
F8.2200000000000006
tp1059
a(F-113.14140516930399
F10.766999999999999
tp1060
a(F-113.140969588348
F8.8109999999999999
tp1061
a(F-113.140534366273
F8.282
tp1062
a(F-113.140099492597
F8.4469999999999992
tp1063
a(F-113.139664961736
F9.5549999999999997
tp1064
a(F-113.139230771106
F8.6349999999999998
tp1065
a(F-113.13879691929399
F8.2149999999999999
tp1066
a(F-113.138363406416
F8.1609999999999996
tp1067
a(F-113.13793023258999
F8.3200000000000003
tp1068
a(F-113.137497398477
F8.1820000000000004
tp1069
a(F-113.137064904955
F8.1129999999999995
tp1070
a(F-113.13663275293599
F8.1129999999999995
tp1071
a(F-113.13620094323799
F8.0890000000000004
tp1072
a(F-113.13576947691401
F8.1980000000000004
tp1073
a(F-113.135338354769
F8.0749999999999993
tp1074
a(F-113.134907577837
F8.1229999999999993
tp1075
a(F-113.13447714696299
F8.2309999999999999
tp1076
a(F-113.134047063018
F8.3030000000000008
tp1077
a(F-113.133617327007
F8.2810000000000006
tp1078
a(F-113.13318793962701
F8.1440000000000001
tp1079
a(F-113.132758901903
F8.0960000000000001
tp1080
a(F-113.132330214604
F8.1829999999999998
tp1081
a(F-113.131901040831
F8.5869999999999997
tp1082
a(F-113.131473004851
F8.5670000000000002
tp1083
a(F-113.13104531901899
F8.6590000000000007
tp1084
a(F-113.13061798391701
F8.6229999999999993
tp1085
a(F-113.13019100023899
F9.1760000000000002
tp1086
a(F-113.129764368525
F8.5399999999999991
tp1087
a(F-113.12933808950901
F8.6929999999999996
tp1088
a(F-113.12891216362
F8.7959999999999994
tp1089
a(F-113.128486591488
F8.7129999999999992
tp1090
a(F-113.12806231390699
F9.4979999999999993
tp1091
a(F-113.12763750068299
F9.0269999999999992
tp1092
a(F-113.127213043086
F8.5009999999999994
tp1093
a(F-113.12678894107199
F8.5519999999999996
tp1094
a(F-113.126365194177
F8.5329999999999995
tp1095
a(F-113.12594180217199
F8.516
tp1096
a(F-113.12551876416801
F9.2260000000000009
tp1097
a(F-113.125096079429
F8.5909999999999993
tp1098
a(F-113.124673746913
F8.6159999999999997
tp1099
a(F-113.124251765159
F8.9039999999999999
tp1100
a(F-113.12383013278
F8.8230000000000004
tp1101
a(F-113.12340884813101
F8.7439999999999998
tp1102
a(F-113.12298790924
F8.6400000000000006
tp1103
a(F-113.122567314995
F8.6349999999999998
tp1104
a(F-113.122147063982
F8.5830000000000002
tp1105
a(F-113.121727155332
F8.5210000000000008
tp1106
a(F-113.121307252759
F9.7140000000000004
tp1107
a(F-113.12088815138
F9.5380000000000003
tp1108
a(F-113.120469411149
F9.5489999999999995
tp1109
a(F-113.120051031814
F9.0350000000000001
tp1110
a(F-113.119633013411
F9.0850000000000009
tp1111
a(F-113.11921535594399
F9.0310000000000006
tp1112
a(F-113.11879805936
F9.6219999999999999
tp1113
a(F-113.118381123457
F8.9789999999999992
tp1114
a(F-113.117964548065
F8.9689999999999994
tp1115
a(F-113.117548332909
F9.2059999999999995
tp1116
a(F-113.117132477719
F9.0350000000000001
tp1117
a(F-113.116716981972
F9.2029999999999994
tp1118
a(F-113.116301845263
F9.1500000000000004
tp1119
a(F-113.11588706702101
F8.9830000000000005
tp1120
a(F-113.115472646623
F9.1430000000000007
tp1121
a(F-113.115058583246
F8.9879999999999995
tp1122
a(F-113.114644876018
F9.0020000000000007
tp1123
a(F-113.114231524142
F9.1980000000000004
tp1124
a(F-113.11381852645199
F9.2579999999999991
tp1125
a(F-113.11340588198399
F8.9920000000000009
tp1126
a(F-113.112993589551
F9.2170000000000005
tp1127
a(F-113.11258040246599
F9.4689999999999994
tp1128
a(F-113.11216883147399
F9.5030000000000001
tp1129
a(F-113.11175761955
F9.8330000000000002
tp1130
a(F-113.111347144918
F9.5289999999999999
tp1131
a(F-113.110936598533
F9.4299999999999997
tp1132
a(F-113.110526808226
F9.5909999999999993
tp1133
a(F-113.110117070453
F8.9610000000000003
tp1134
a(F-113.109707688673
F9.2699999999999996
tp1135
a(F-113.109298661591
F9.0579999999999998
tp1136
a(F-113.10888998756
F9.1470000000000002
tp1137
a(F-113.108481664621
F9.5560000000000009
tp1138
a(F-113.1080736904
F10.217000000000001
tp1139
a(F-113.107666062693
F9.0830000000000002
tp1140
a(F-113.107258778909
F9.4960000000000004
tp1141
a(F-113.10685183666401
F8.9610000000000003
tp1142
a(F-113.106445233836
F8.9809999999999999
tp1143
a(F-113.106038968748
F9.0259999999999998
tp1144
a(F-113.105633040672
F9.9749999999999996
tp1145
a(F-113.10522744942401
F9.9130000000000003
tp1146
a(F-113.104822196512
F9.0559999999999992
tp1147
a(F-113.104417283779
F9.3030000000000008
tp1148
a(F-113.10401271431
F8.9939999999999998
tp1149
a(F-113.10360849114601
F9.1389999999999993
tp1150
a(F-113.103204617206
F9.0670000000000002
tp1151
a(F-113.10280070989501
F9.4209999999999994
tp1152
a(F-113.10239762568899
F9.8330000000000002
tp1153
a(F-113.10199488679299
F10.067
tp1154
a(F-113.10159249244499
F9.4420000000000002
tp1155
a(F-113.101190441518
F9.4469999999999992
tp1156
a(F-113.100788704794
F9.468
tp1157
a(F-113.10038733001301
F9.4420000000000002
tp1158
a(F-113.09998629492
F9.4130000000000003
tp1159
a(F-113.099585598684
F9.5380000000000003
tp1160
a(F-113.099186167121
F9.4250000000000007
tp1161
a(F-113.09878620475099
F9.5909999999999993
tp1162
a(F-113.098386579254
F9.4870000000000001
tp1163
a(F-113.097987289084
F9.5150000000000006
tp1164
a(F-113.097588332104
F11.058999999999999
tp1165
a(F-113.097189706172
F12.837999999999999
tp1166
a(F-113.096791409057
F9.8550000000000004
tp1167
a(F-113.096393438522
F9.4610000000000003
tp1168
a(F-113.095995791828
F9.6430000000000007
tp1169
a(F-113.095598466829
F9.5060000000000002
tp1170
a(F-113.095201461202
F9.6140000000000008
tp1171
a(F-113.09480477304901
F9.5259999999999998
tp1172
a(F-113.094408401137
F9.5449999999999999
tp1173
a(F-113.094012344584
F9.657
tp1174
a(F-113.093615814944
F10.013999999999999
tp1175
a(F-113.093220445608
F10.241
tp1176
a(F-113.092825396721
F9.8379999999999992
tp1177
a(F-113.092430666843
F9.9930000000000003
tp1178
a(F-113.09203625436599
F9.923
tp1179
a(F-113.091642157728
F9.9199999999999999
tp1180
a(F-113.091248375593
F9.8979999999999997
tp1181
a(F-113.090854906434
F10.206
tp1182
a(F-113.090462975062
F10.173999999999999
tp1183
a(F-113.09007019834
F10.125
tp1184
a(F-113.089677733249
F9.9000000000000004
tp1185
a(F-113.089285577449
F9.9169999999999998
tp1186
a(F-113.08889372934399
F9.9619999999999997
tp1187
a(F-113.088502186681
F10.291
tp1188
a(F-113.088110947704
F9.9209999999999994
tp1189
a(F-113.087720009585
F9.9310000000000009
tp1190
a(F-113.08732937038199
F9.9480000000000004
tp1191
a(F-113.086939027432
F9.9559999999999995
tp1192
a(F-113.08654897799801
F9.9640000000000004
tp1193
a(F-113.08615921926901
F11.221
tp1194
a(F-113.085769748522
F12.31
tp1195
a(F-113.085380562777
F10.016999999999999
tp1196
a(F-113.08499165935601
F10.08
tp1197
a(F-113.08460172365
F10.455
tp1198
a(F-113.084213387776
F10.304
tp1199
a(F-113.08382533595
F11.336
tp1200
a(F-113.083437566605
F10.359
tp1201
a(F-113.083050077631
F10.464
tp1202
a(F-113.08266286722299
F10.308999999999999
tp1203
a(F-113.08227617310099
F11.538
tp1204
a(F-113.081889529808
F10.83
tp1205
a(F-113.081503159989
F10.724
tp1206
a(F-113.08111706083901
F11.066000000000001
tp1207
a(F-113.080731230594
F10.81
tp1208
a(F-113.080345667543
F11.228
tp1209
a(F-113.079960368765
F11.912000000000001
tp1210
a(F-113.079575332763
F10.82
tp1211
a(F-113.07919055677
F11.006
tp1212
a(F-113.07880603899
F10.943999999999999
tp1213
a(F-113.078421776705
F10.824
tp1214
a(F-113.07803776799101
F10.785
tp1215
a(F-113.07765401002
F10.907
tp1216
a(F-113.077270500987
F10.805
tp1217
a(F-113.07688723812601
F10.728999999999999
tp1218
a(F-113.076504219182
F10.939
tp1219
a(F-113.07612144154299
F10.884
tp1220
a(F-113.07573882798501
F12.028
tp1221
a(F-113.07535652724199
F11.298999999999999
tp1222
a(F-113.074974460384
F10.776999999999999
tp1223
a(F-113.0745926251
F10.816000000000001
tp1224
a(F-113.07421101905
F10.750999999999999
tp1225
a(F-113.073829639265
F10.757
tp1226
a(F-113.073448483238
F10.84
tp1227
a(F-113.07306754811999
F10.772
tp1228
a(F-113.07268683171201
F10.884
tp1229
a(F-113.072306330571
F10.798
tp1230
a(F-113.07192604234
F10.774000000000001
tp1231
a(F-113.071545964253
F10.75
tp1232
a(F-113.07116609332699
F11.067
tp1233
a(F-113.07078642697201
F10.798999999999999
tp1234
a(F-113.070406961636
F10.786
tp1235
a(F-113.070027695004
F10.872999999999999
tp1236
a(F-113.06964862372099
F10.917
tp1237
a(F-113.069269744999
F12.221
tp1238
a(F-113.06889105581099
F10.757999999999999
tp1239
a(F-113.068512553202
F10.933999999999999
tp1240
a(F-113.068134233701
F10.734999999999999
tp1241
a(F-113.067756024158
F11.884
tp1242
a(F-113.06737805846799
F11.577
tp1243
a(F-113.067000266056
F11.326000000000001
tp1244
a(F-113.066622485191
F11.045
tp1245
a(F-113.066245033938
F11.315
tp1246
a(F-113.065867745435
F10.702
tp1247
a(F-113.06549061633901
F11.458
tp1248
a(F-113.06511364361999
F10.849
tp1249
a(F-113.064736823508
F11.177
tp1250
a(F-113.06436015298
F11.273
tp1251
a(F-113.063983628023
F10.763
tp1252
a(F-113.063607245569
F11.206
tp1253
a(F-113.06323100144
F10.834
tp1254
a(F-113.062854892464
F10.884
tp1255
a(F-113.062478914507
F10.821
tp1256
a(F-113.062103063205
F11.064
tp1257
a(F-113.06172733503099
F11.6
tp1258
a(F-113.06135172524399
F10.977
tp1259
a(F-113.06097622923799
F10.736000000000001
tp1260
a(F-113.060600842447
F14.039999999999999
tp1261
a(F-113.060225558971
F10.895
tp1262
a(F-113.05985037300201
F10.784000000000001
tp1263
a(F-113.05947527802699
F10.756
tp1264
a(F-113.059100265928
F10.728999999999999
tp1265
a(F-113.058725328317
F10.898
tp1266
a(F-113.05835045638
F10.773
tp1267
a(F-113.0579756413
F10.744
tp1268
a(F-113.057600876008
F10.869999999999999
tp1269
a(F-113.057226156523
F12.83
tp1270
a(F-113.056851483835
F11.016
tp1271
a(F-113.05647686385601
F10.699
tp1272
a(F-113.056102304986
F10.848000000000001
tp1273
a(F-113.055727816142
F10.93
tp1274
a(F-113.055356229197
F11.675000000000001
tp1275
a(F-113.054982201838
F11.249000000000001
tp1276
a(F-113.05460823059801
F11.468999999999999
tp1277
a(F-113.05423430647301
F11.220000000000001
tp1278
a(F-113.053860419202
F11.167999999999999
tp1279
a(F-113.053486559367
F11.661
tp1280
a(F-113.05311271888
F12.411
tp1281
a(F-113.052738892489
F11.234999999999999
tp1282
a(F-113.052365074465
F11.199
tp1283
a(F-113.051991259982
F12.214
tp1284
a(F-113.051617442515
F11.238
tp1285
a(F-113.051243613783
F11.307
tp1286
a(F-113.05086976466799
F11.396000000000001
tp1287
a(F-113.05049588617899
F11.444000000000001
tp1288
a(F-113.050121969994
F11.284000000000001
tp1289
a(F-113.049748010263
F11.234999999999999
tp1290
a(F-113.049374003526
F11.656000000000001
tp1291
a(F-113.04899889579301
F12.474
tp1292
a(F-113.04862493909999
F12.427
tp1293
a(F-113.048250948472
F11.992000000000001
tp1294
a(F-113.04787691877399
F11.946
tp1295
a(F-113.047502844484
F11.686
tp1296
a(F-113.047128720586
F11.93
tp1297
a(F-113.04675454143199
F12.226000000000001
tp1298
a(F-113.04638030174701
F11.753
tp1299
a(F-113.046005996216
F11.666
tp1300
a(F-113.04563172159099
F12.183999999999999
tp1301
a(F-113.0452572743
F12.295999999999999
tp1302
a(F-113.04488274480001
F12.186999999999999
tp1303
a(F-113.044508127452
F12.417999999999999
tp1304
a(F-113.044133416417
F12.244999999999999
tp1305
a(F-113.043758606418
F12.206
tp1306
a(F-113.04338369083899
F12.050000000000001
tp1307
a(F-113.043008664683
F12.111000000000001
tp1308
a(F-113.042633521772
F12.1
tp1309
a(F-113.042258256146
F12.182
tp1310
a(F-113.041882861826
F12.336
tp1311
a(F-113.04150733280601
F12.004
tp1312
a(F-113.041131663277
F12.111000000000001
tp1313
a(F-113.04075584659201
F12.135999999999999
tp1314
a(F-113.040379877118
F12.099
tp1315
a(F-113.04000374793701
F15.731
tp1316
a(F-113.039627453609
F12.26
tp1317
a(F-113.039250987641
F12.739000000000001
tp1318
a(F-113.03887434322201
F12.077
tp1319
a(F-113.038497514312
F12.037000000000001
tp1320
a(F-113.038120494349
F12.866
tp1321
a(F-113.03774327693201
F12.175000000000001
tp1322
a(F-113.03736585535501
F12.206
tp1323
a(F-113.036988222861
F11.994
tp1324
a(F-113.036610372886
F12.343
tp1325
a(F-113.03623229901299
F12.433
tp1326
a(F-113.03585399396199
F12.519
tp1327
a(F-113.035475451224
F12.096
tp1328
a(F-113.035096663877
F12.269
tp1329
a(F-113.034717625124
F12.247
tp1330
a(F-113.03433832791001
F12.404
tp1331
a(F-113.033958764804
F12.042999999999999
tp1332
a(F-113.03357892934299
F12.061999999999999
tp1333
a(F-113.03319881417301
F12.076000000000001
tp1334
a(F-113.032818409757
F13.215999999999999
tp1335
a(F-113.032437719523
F12.835000000000001
tp1336
a(F-113.032056728608
F12.5
tp1337
a(F-113.031675429432
F12.573
tp1338
a(F-113.031293814661
F12.840999999999999
tp1339
a(F-113.030911876932
F13.789999999999999
tp1340
a(F-113.03052960864601
F12.640000000000001
tp1341
a(F-113.030147002644
F16.221
tp1342
a(F-113.029764051133
F12.597
tp1343
a(F-113.02938074645699
F12.651999999999999
tp1344
a(F-113.02899708130801
F12.634
tp1345
a(F-113.028613047481
F12.432
tp1346
a(F-113.028228637715
F12.788
tp1347
a(F-113.027843843898
F13.486000000000001
tp1348
a(F-113.027458658155
F12.477
tp1349
a(F-113.02707307293601
F12.691000000000001
tp1350
a(F-113.026687080063
F12.478
tp1351
a(F-113.026300671686
F12.548
tp1352
a(F-113.025913839721
F12.85
tp1353
a(F-113.02552657631399
F12.686
tp1354
a(F-113.02513887305
F13.125999999999999
tp1355
a(F-113.024750721505
F12.667
tp1356
a(F-113.024362114315
F14.058
tp1357
a(F-113.023973042593
F12.516
tp1358
a(F-113.023583498156
F12.653
tp1359
a(F-113.02319347298
F12.475999999999999
tp1360
a(F-113.022802958494
F12.891
tp1361
a(F-113.02241194608
F12.861000000000001
tp1362
a(F-113.022020427295
F12.907
tp1363
a(F-113.02162839402401
F12.468
tp1364
a(F-113.02123583772899
F13.052
tp1365
a(F-113.02084274958101
F12.664999999999999
tp1366
a(F-113.02044912082501
F12.573
tp1367
a(F-113.02005494342001
F12.811999999999999
tp1368
a(F-113.019660208037
F13.038
tp1369
a(F-113.019264906451
F12.608000000000001
tp1370
a(F-113.018869029839
F12.744
tp1371
a(F-113.018472569072
F13.859
tp1372
a(F-113.01807551550201
F13.898
tp1373
a(F-113.017677860441
F12.983000000000001
tp1374
a(F-113.01727959506
F12.661
tp1375
a(F-113.01688071034199
F12.564
tp1376
a(F-113.0164807238
F13.013
tp1377
a(F-113.01608056805701
F13.029
tp1378
a(F-113.01567976627599
F12.923
tp1379
a(F-113.01527830920899
F13.007999999999999
tp1380
a(F-113.014876188221
F12.890000000000001
tp1381
a(F-113.01447339417
F13.140000000000001
tp1382
a(F-113.014069918168
F13.271000000000001
tp1383
a(F-113.013665750914
F13.673999999999999
tp1384
a(F-113.013260883551
F12.968999999999999
tp1385
a(F-113.012855306972
F13.071999999999999
tp1386
a(F-113.012449012307
F14.246
tp1387
a(F-113.01204199033801
F13.154999999999999
tp1388
a(F-113.011634232175
F13.875999999999999
tp1389
a(F-113.011225728501
F13.071
tp1390
a(F-113.010816470717
F14.859
tp1391
a(F-113.010406449173
F13.545
tp1392
a(F-113.009995655061
F13.249000000000001
tp1393
a(F-113.009584079673
F13.326000000000001
tp1394
a(F-113.00917171371999
F13.899000000000001
tp1395
a(F-113.00875854758399
F13.646000000000001
tp1396
a(F-113.008344572845
F13.039
tp1397
a(F-113.007929780097
F13.045
tp1398
a(F-113.007514160632
F12.901999999999999
tp1399
a(F-113.0070977052
F14.505000000000001
tp1400
a(F-113.006680405098
F13.247999999999999
tp1401
a(F-113.00626225070999
F13.853999999999999
tp1402
a(F-113.005843233036
F13.167
tp1403
a(F-113.005423343125
F13.792
tp1404
a(F-113.00500257213
F13.343
tp1405
a(F-113.004580910881
F13.125
tp1406
a(F-113.004158350102
F13.175000000000001
tp1407
a(F-113.00373488138
F13.124000000000001
tp1408
a(F-113.003310495479
F13.715
tp1409
a(F-113.002885183647
F13.077999999999999
tp1410
a(F-113.002458936522
F13.195
tp1411
a(F-113.00203174570299
F13.456
tp1412
a(F-113.001603601949
F13.539999999999999
tp1413
a(F-113.001174497075
F13.361000000000001
tp1414
a(F-113.000745216057
F13.584
tp1415
a(F-113.000314147376
F13.462999999999999
tp1416
a(F-112.99988208995801
F13.733000000000001
tp1417
a(F-112.999449035829
F13.675000000000001
tp1418
a(F-112.999014976147
F13.699
tp1419
a(F-112.998579902475
F14.262
tp1420
a(F-112.998143806724
F17.856000000000002
tp1421
a(F-112.997706680448
F13.997
tp1422
a(F-112.99726851557701
F13.85
tp1423
a(F-112.99682930401799
F13.500999999999999
tp1424
a(F-112.996389038061
F13.701000000000001
tp1425
a(F-112.995947709191
F13.731999999999999
tp1426
a(F-112.99550531023201
F13.565
tp1427
a(F-112.995061832885
F13.872999999999999
tp1428
a(F-112.99461727018701
F13.643000000000001
tp1429
a(F-112.994171614189
F13.728
tp1430
a(F-112.993724857654
F13.68
tp1431
a(F-112.993276992886
F13.539999999999999
tp1432
a(F-112.992828013585
F13.377000000000001
tp1433
a(F-112.992377912034
F13.561999999999999
tp1434
a(F-112.99192668164601
F13.602
tp1435
a(F-112.99147490294
F14.561999999999999
tp1436
a(F-112.991021435843
F13.891
tp1437
a(F-112.99056681939101
F13.949
tp1438
a(F-112.99011104710701
F15.385999999999999
tp1439
a(F-112.989654113193
F14.037000000000001
tp1440
a(F-112.98919601102401
F14.06
tp1441
a(F-112.98873673562601
F13.742000000000001
tp1442
a(F-112.98827628043
F13.798999999999999
tp1443
a(F-112.987814639866
F13.965999999999999
tp1444
a(F-112.987351808783
F13.842000000000001
tp1445
a(F-112.986887782103
F14.1
tp1446
a(F-112.986422553548
F13.946999999999999
tp1447
a(F-112.985956118592
F14.076000000000001
tp1448
a(F-112.985488471785
F14.013
tp1449
a(F-112.985019608673
F13.69
tp1450
a(F-112.984549522729
F13.837
tp1451
a(F-112.984078210397
F13.909000000000001
tp1452
a(F-112.98360566591801
F14.563000000000001
tp1453
a(F-112.983131883951
F14.021000000000001
tp1454
a(F-112.982656861061
F13.872
tp1455
a(F-112.98218059241999
F13.74
tp1456
a(F-112.981703075721
F13.965
tp1457
a(F-112.981224309723
F14.218999999999999
tp1458
a(F-112.980744295628
F13.917
tp1459
a(F-112.980263036251
F14.012
tp1460
a(F-112.97978053899899
F13.808999999999999
tp1461
a(F-112.979296812089
F13.69
tp1462
a(F-112.97881186516101
F13.933
tp1463
a(F-112.97832570417
F15.018000000000001
tp1464
a(F-112.97783833376801
F14.593
tp1465
a(F-112.97734975039801
F14.814
tp1466
a(F-112.97686133715401
F14.256
tp1467
a(F-112.97637024436899
F14.473000000000001
tp1468
a(F-112.97587789839901
F14.217000000000001
tp1469
a(F-112.975384300806
F14.971
tp1470
a(F-112.974889452664
F15.119999999999999
tp1471
a(F-112.974393355863
F14.584
tp1472
a(F-112.97389601187
F14.430999999999999
tp1473
a(F-112.97339742267999
F14.362
tp1474
a(F-112.972897590917
F14.516999999999999
tp1475
a(F-112.972396518892
F14.225
tp1476
a(F-112.97189420969001
F14.1
tp1477
a(F-112.971390666248
F14.458
tp1478
a(F-112.97088589195501
F14.839
tp1479
a(F-112.970379890812
F14.43
tp1480
a(F-112.969872666846
F14.276999999999999
tp1481
a(F-112.969364224169
F14.247999999999999
tp1482
a(F-112.96885456779501
F14.772
tp1483
a(F-112.96834370230199
F14.281000000000001
tp1484
a(F-112.967831632451
F14.683999999999999
tp1485
a(F-112.96731836321101
F14.284000000000001
tp1486
a(F-112.96680389972801
F14.098000000000001
tp1487
a(F-112.96628824674499
F14.257
tp1488
a(F-112.965771408661
F14.236000000000001
tp1489
a(F-112.96525339057899
F15.037000000000001
tp1490
a(F-112.964734197703
F14.050000000000001
tp1491
a(F-112.964213838017
F14.036
tp1492
a(F-112.963692322057
F14.782999999999999
tp1493
a(F-112.963169665401
F14.614000000000001
tp1494
a(F-112.96264531425101
F15.333
tp1495
a(F-112.96212045200301
F15.452
tp1496
a(F-112.96159447749299
F15.500999999999999
tp1497
a(F-112.961067400738
F16.245999999999999
tp1498
a(F-112.96053922948199
F15.448
tp1499
a(F-112.96000997317999
F15.477
tp1500
a(F-112.959479641711
F15.619
tp1501
a(F-112.958948246259
F15.381
tp1502
a(F-112.95841579756301
F15.984999999999999
tp1503
a(F-112.957882306938
F15.395
tp1504
a(F-112.957347787004
F15.423999999999999
tp1505
a(F-112.956812250475
F15.364000000000001
tp1506
a(F-112.956275710423
F15.401999999999999
tp1507
a(F-112.955738180604
F15.379
tp1508
a(F-112.955199674355
F15.715
tp1509
a(F-112.95466020601501
F15.606
tp1510
a(F-112.954119791533
F15.515000000000001
tp1511
a(F-112.95357777142
F16.826000000000001
tp1512
a(F-112.95303542232701
F16.408999999999999
tp1513
a(F-112.95249227211799
F16.849
tp1514
a(F-112.95194833786501
F19.564
tp1515
a(F-112.951403594342
F21.399000000000001
tp1516
a(F-112.95085800365
F17.548999999999999
tp1517
a(F-112.950311543715
F16.341999999999999
tp1518
a(F-112.94976421620299
F16.233000000000001
tp1519
a(F-112.949216040626
F17.120000000000001
tp1520
a(F-112.94866684921899
F16.434999999999999
tp1521
a(F-112.948117039962
F16.273
tp1522
a(F-112.947566824305
F18.838000000000001
tp1523
a(F-112.947015566982
F17.312999999999999
tp1524
a(F-112.94646359570601
F17.596
tp1525
a(F-112.945910929729
F16.995999999999999
tp1526
a(F-112.94535758860999
F17.132000000000001
tp1527
a(F-112.944803591024
F17.280000000000001
tp1528
a(F-112.94424895736
F17.088999999999999
tp1529
a(F-112.94369370610001
F18.934999999999999
tp1530
a(F-112.943137857121
F17.265999999999998
tp1531
a(F-112.942581428274
F17.806999999999999
tp1532
a(F-112.94202443752
F17.164999999999999
tp1533
a(F-112.94146690313001
F17.245999999999999
tp1534
a(F-112.940908844153
F17.094999999999999
tp1535
a(F-112.940350279496
F18.454000000000001
tp1536
a(F-112.939789561835
F16.963999999999999
tp1537
a(F-112.93923066196901
F16.663
tp1538
a(F-112.93867105778
F16.609000000000002
tp1539
a(F-112.938111967251
F15.952
tp1540
a(F-112.937549834729
F17.414999999999999
tp1541
a(F-112.93698972060299
F17.041
tp1542
a(F-112.93642662568701
F16.736999999999998
tp1543
a(F-112.93586670526101
F17.478999999999999
tp1544
a(F-112.93530464026399
F19.233000000000001
tp1545
a(F-112.93474230432
F23.419
tp1546
a(F-112.934179727935
F20.949999999999999
tp1547
a(F-112.933616928463
F18.244
tp1548
a(F-112.9330539243
F17.085000000000001
tp1549
a(F-112.932490733785
F18.056999999999999
tp1550
a(F-112.931925991988
F15.785
tp1551
a(F-112.93136225964901
F15.756
tp1552
a(F-112.930800115941
F16.157
tp1553
a(F-112.930236414628
F16.135999999999999
tp1554
a(F-112.92967264513899
F16.306999999999999
tp1555
a(F-112.92910883083999
F16.164999999999999
tp1556
a(F-112.92854499485399
F16.151
tp1557
a(F-112.927981159303
F16.390000000000001
tp1558
a(F-112.927417343439
F16.369
tp1559
a(F-112.926853560444
F16.378
tp1560
a(F-112.92628980789
F16.385000000000002
tp1561
a(F-112.925726055853
F16.798999999999999
tp1562
a(F-112.92516224148601
F16.306000000000001
tp1563
a(F-112.92459909589201
F17.143999999999998
tp1564
a(F-112.924035887901
F16.576999999999998
tp1565
a(F-112.923472787519
F16.774000000000001
tp1566
a(F-112.922909150744
F16.739000000000001
tp1567
a(F-112.92234694445899
F16.227
tp1568
a(F-112.921784499206
F16.405000000000001
tp1569
a(F-112.921221463346
F15.821999999999999
tp1570
a(F-112.920660962032
F16.135000000000002
tp1571
a(F-112.92009825101501
F16.722999999999999
tp1572
a(F-112.919537098503
F16.698
tp1573
a(F-112.918976307886
F16.826000000000001
tp1574
a(F-112.918415901299
F16.690999999999999
tp1575
a(F-112.91785590105999
F16.675999999999998
tp1576
a(F-112.917296328897
F18.001000000000001
tp1577
a(F-112.916737207016
F17.018000000000001
tp1578
a(F-112.91617855719301
F16.998000000000001
tp1579
a(F-112.91562040058901
F16.818000000000001
tp1580
a(F-112.915062759188
F16.678999999999998
tp1581
a(F-112.914505653642
F16.707999999999998
tp1582
a(F-112.913949104987
F18.390999999999998
tp1583
a(F-112.91339313479099
F16.713000000000001
tp1584
a(F-112.91283776371
F17.481999999999999
tp1585
a(F-112.912283414998
F17.119
tp1586
a(F-112.91172931402301
F23.407
tp1587
a(F-112.911175874512
F18.728000000000002
tp1588
a(F-112.910623115709
F20.353000000000002
tp1589
a(F-112.910071058173
F18.077999999999999
tp1590
a(F-112.909519721225
F17.457000000000001
tp1591
a(F-112.90896912455401
F17.297999999999998
tp1592
a(F-112.908419286823
F17.992000000000001
tp1593
a(F-112.90787022776099
F17.434999999999999
tp1594
a(F-112.90732196581099
F17.131
tp1595
a(F-112.90677452011001
F18.523
tp1596
a(F-112.906227908893
F17.439
tp1597
a(F-112.905682149849
F17.172000000000001
tp1598
a(F-112.905137261036
F17.844000000000001
tp1599
a(F-112.90459326051599
F17.306999999999999
tp1600
a(F-112.90405016501801
F17.036999999999999
tp1601
a(F-112.903507991878
F17.277999999999999
tp1602
a(F-112.90296675767399
F18.364999999999998
tp1603
a(F-112.902426477915
F17.122
tp1604
a(F-112.901887169189
F17.015000000000001
tp1605
a(F-112.901348846988
F17.347999999999999
tp1606
a(F-112.90081152696
F17.704000000000001
tp1607
a(F-112.90027522716299
F17.091000000000001
tp1608
a(F-112.899739972047
F16.992000000000001
tp1609
a(F-112.899205805292
F19.135000000000002
tp1610
a(F-112.898672828922
F17.532
tp1611
a(F-112.898141257002
F17.399999999999999
tp1612
a(F-112.897609836526
F18.024000000000001
tp1613
a(F-112.897080156255
F18.329999999999998
tp1614
a(F-112.89655108386199
F17.140999999999998
tp1615
a(F-112.896024462282
F17.620999999999999
tp1616
a(F-112.895498196605
F17.558
tp1617
a(F-112.894973150415
F17.760000000000002
tp1618
a(F-112.89444901331299
F18.265000000000001
tp1619
a(F-112.893925833734
F17.898
tp1620
a(F-112.893404314238
F17.521999999999998
tp1621
a(F-112.892883598769
F17.901
tp1622
a(F-112.892365130139
F18.942
tp1623
a(F-112.891847192645
F19.512
tp1624
a(F-112.891330509497
F20.123999999999999
tp1625
a(F-112.89081509212799
F20.620000000000001
tp1626
a(F-112.89030095157899
F17.411000000000001
tp1627
a(F-112.889788098118
F17.623000000000001
tp1628
a(F-112.889276543082
F17.396999999999998
tp1629
a(F-112.88876629700999
F17.827999999999999
tp1630
a(F-112.88825678881901
F17.405000000000001
tp1631
a(F-112.88774916832
F17.466000000000001
tp1632
a(F-112.887242884944
F18.391999999999999
tp1633
a(F-112.886737947142
F17.937999999999999
tp1634
a(F-112.886234363733
F20.698
tp1635
a(F-112.885731904377
F17.547000000000001
tp1636
a(F-112.885231061756
F17.466000000000001
tp1637
a(F-112.884731609708
F17.675999999999998
tp1638
a(F-112.88423355728
F19.640999999999998
tp1639
a(F-112.88373691322499
F17.582000000000001
tp1640
a(F-112.883241685606
F21.858000000000001
tp1641
a(F-112.88274788161699
F18.138999999999999
tp1642
a(F-112.882256655018
F18.143000000000001
tp1643
a(F-112.881765686609
F18.138000000000002
tp1644
a(F-112.881276154395
F18.088999999999999
tp1645
a(F-112.88078806439199
F17.831
tp1646
a(F-112.88030126443
F17.640000000000001
tp1647
a(F-112.87981607723501
F18.245000000000001
tp1648
a(F-112.879332351109
F17.478000000000002
tp1649
a(F-112.878850091651
F17.414999999999999
tp1650
a(F-112.878369304061
F17.913
tp1651
a(F-112.87788999386299
F17.609999999999999
tp1652
a(F-112.877412166263
F18.059000000000001
tp1653
a(F-112.876935128485
F17.327999999999999
tp1654
a(F-112.876460275101
F18.224
tp1655
a(F-112.875986918023
F17.613
tp1656
a(F-112.875515062158
F19.541
tp1657
a(F-112.875044711328
F17.323
tp1658
a(F-112.874575869377
F17.681999999999999
tp1659
a(F-112.87410854001099
F17.606999999999999
tp1660
a(F-112.87364272676
F17.571000000000002
tp1661
a(F-112.873178356984
F17.783999999999999
tp1662
a(F-112.87271558517899
F17.370000000000001
tp1663
a(F-112.872254338914
F17.420999999999999
tp1664
a(F-112.871794621044
F17.449000000000002
tp1665
a(F-112.87133643450601
F17.648
tp1666
a(F-112.870879781249
F17.553000000000001
tp1667
a(F-112.870424663777
F17.850999999999999
tp1668
a(F-112.869971084326
F17.966999999999999
tp1669
a(F-112.869519044559
F18.501000000000001
tp1670
a(F-112.869068546474
F17.41
tp1671
a(F-112.86861959152
F19.440999999999999
tp1672
a(F-112.868172181288
F18.329999999999998
tp1673
a(F-112.86772631697799
F19.609000000000002
tp1674
a(F-112.86728199967899
F17.766999999999999
tp1675
a(F-112.86683923029101
F17.414000000000001
tp1676
a(F-112.866398009516
F18.774999999999999
tp1677
a(F-112.865958338429
F17.774999999999999
tp1678
a(F-112.865520217423
F17.428999999999998
tp1679
a(F-112.865083646754
F17.463000000000001
tp1680
a(F-112.864648626647
F17.481000000000002
tp1681
a(F-112.864215157221
F18.527999999999999
tp1682
a(F-112.863783238526
F17.465
tp1683
a(F-112.863352870097
F17.478000000000002
tp1684
a(F-112.862924052133
F17.649000000000001
tp1685
a(F-112.862496783886
F17.867999999999999
tp1686
a(F-112.86207106472
F17.491
tp1687
a(F-112.861646894007
F19.998999999999999
tp1688
a(F-112.86122427107399
F17.469999999999999
tp1689
a(F-112.860803195054
F17.416
tp1690
a(F-112.86038366459699
F17.486000000000001
tp1691
a(F-112.859965678262
F17.448
tp1692
a(F-112.859549235708
F18.138000000000002
tp1693
a(F-112.85913433510601
F17.457000000000001
tp1694
a(F-112.858720974668
F17.384
tp1695
a(F-112.858309153005
F17.798999999999999
tp1696
a(F-112.85789886841
F17.757999999999999
tp1697
a(F-112.85749011905099
F17.510000000000002
tp1698
a(F-112.85708290287
F17.609999999999999
tp1699
a(F-112.85667721812401
F17.491
tp1700
a(F-112.856273062518
F17.866
tp1701
a(F-112.85587043394401
F18.032
tp1702
a(F-112.85546932998901
F17.603000000000002
tp1703
a(F-112.855069748275
F18.173999999999999
tp1704
a(F-112.8546716864
F17.683
tp1705
a(F-112.85427514145
F17.978000000000002
tp1706
a(F-112.85388011119601
F17.5
tp1707
a(F-112.853486593065
F18.369
tp1708
a(F-112.85309458377
F18.43
tp1709
a(F-112.852704080504
F18.152000000000001
tp1710
a(F-112.852315080561
F18.489999999999998
tp1711
a(F-112.851927580599
F19.206
tp1712
a(F-112.85154157763
F17.972000000000001
tp1713
a(F-112.851157068444
F18.135000000000002
tp1714
a(F-112.850774049477
F18.233000000000001
tp1715
a(F-112.850392517793
F17.852
tp1716
a(F-112.850012469877
F17.594000000000001
tp1717
a(F-112.849633902157
F17.629999999999999
tp1718
a(F-112.84925681106201
F17.891999999999999
tp1719
a(F-112.848881193132
F17.699999999999999
tp1720
a(F-112.848507044671
F18.225000000000001
tp1721
a(F-112.848134361956
F19.643999999999998
tp1722
a(F-112.847763141109
F17.529
tp1723
a(F-112.84739337838499
F18.798999999999999
tp1724
a(F-112.847025047963
F17.832000000000001
tp1725
a(F-112.84665818986301
F18.161000000000001
tp1726
a(F-112.846292778164
F17.626999999999999
tp1727
a(F-112.845928808376
F17.513000000000002
tp1728
a(F-112.845566276898
F93.025000000000006
tp1729
a(F-112.845205179177
F17.648
tp1730
a(F-112.84484551125
F18.119
tp1731
a(F-112.844487269102
F17.417999999999999
tp1732
a(F-112.84413044800399
F17.949000000000002
tp1733
a(F-112.84377504384101
F17.283999999999999
tp1734
a(F-112.843421052206
F17.728999999999999
tp1735
a(F-112.84306846876299
F17.399999999999999
tp1736
a(F-112.842717289155
F20.460999999999999
tp1737
a(F-112.842367508668
F17.367999999999999
tp1738
a(F-112.84201912298001
F17.574000000000002
tp1739
a(F-112.84167212740201
F17.974
tp1740
a(F-112.841326517506
F18.001999999999999
tp1741
a(F-112.84098228848799
F17.381
tp1742
a(F-112.840639435903
F17.873999999999999
tp1743
a(F-112.840297955008
F17.308
tp1744
a(F-112.83995784110699
F17.870000000000001
tp1745
a(F-112.839619089255
F18.039000000000001
tp1746
a(F-112.8392816951
F18.053000000000001
tp1747
a(F-112.838945652359
F17.460000000000001
tp1748
a(F-112.838610958575
F17.300000000000001
tp1749
a(F-112.838277607986
F17.462
tp1750
a(F-112.83794559539
F18.137
tp1751
a(F-112.83761490427401
F17.311
tp1752
a(F-112.83728555314001
F17.850000000000001
tp1753
a(F-112.83695752550599
F17.332999999999998
tp1754
a(F-112.836630816294
F17.626999999999999
tp1755
a(F-112.83630542073099
F17.463999999999999
tp1756
a(F-112.835981333671
F17.468
tp1757
a(F-112.83565855038201
F17.690000000000001
tp1758
a(F-112.835337065435
F17.576999999999998
tp1759
a(F-112.835016874199
F17.372
tp1760
a(F-112.83469797133699
F17.789999999999999
tp1761
a(F-112.834380352146
F17.396999999999998
tp1762
a(F-112.83406401129599
F17.286000000000001
tp1763
a(F-112.83374894388599
F17.335000000000001
tp1764
a(F-112.83343514470801
F18.059000000000001
tp1765
a(F-112.833122608659
F17.253
tp1766
a(F-112.832811330632
F17.669
tp1767
a(F-112.832501305728
F17.199999999999999
tp1768
a(F-112.832192528513
F17.344999999999999
tp1769
a(F-112.831884994136
F23.715
tp1770
a(F-112.831578697372
F17.693000000000001
tp1771
a(F-112.83127363303301
F17.765999999999998
tp1772
a(F-112.830969796031
F18.876000000000001
tp1773
a(F-112.830667181351
F17.616
tp1774
a(F-112.83036578362901
F17.387
tp1775
a(F-112.830065597865
F19.579999999999998
tp1776
a(F-112.829766618573
F17.529
tp1777
a(F-112.82946884103799
F18.369
tp1778
a(F-112.829172260196
F17.780000000000001
tp1779
a(F-112.82887687057899
F20.713999999999999
tp1780
a(F-112.82858266695401
F17.420000000000002
tp1781
a(F-112.82828964438301
F17.716999999999999
tp1782
a(F-112.827997797584
F17.481000000000002
tp1783
a(F-112.82770712136499
F19.356999999999999
tp1784
a(F-112.827417610879
F17.43
tp1785
a(F-112.82712926062
F17.911999999999999
tp1786
a(F-112.82684206577299
F17.335000000000001
tp1787
a(F-112.826556020876
F18.335999999999999
tp1788
a(F-112.826271121042
F17.193999999999999
tp1789
a(F-112.825987361077
F18.128
tp1790
a(F-112.825704735765
F17.286999999999999
tp1791
a(F-112.825423240311
F18.495999999999999
tp1792
a(F-112.82514286908599
F36.539000000000001
tp1793
a(F-112.82486361725
F23.472000000000001
tp1794
a(F-112.82458547972401
F33.18
tp1795
a(F-112.824308451598
F17.148
tp1796
a(F-112.824032527252
F22.800000000000001
tp1797
a(F-112.823757702083
F20.629999999999999
tp1798
a(F-112.823483970796
F21.73
tp1799
a(F-112.82321132866799
F17.257000000000001
tp1800
a(F-112.822939770134
F20.311
tp1801
a(F-112.822669290589
F17.550999999999998
tp1802
a(F-112.822399884918
F22.202000000000002
tp1803
a(F-112.822131547735
F19.268999999999998
tp1804
a(F-112.821864274568
F19.036000000000001
tp1805
a(F-112.821598060005
F24.303000000000001
tp1806
a(F-112.8213328993
F22.297999999999998
tp1807
a(F-112.821068787337
F21.143999999999998
tp1808
a(F-112.820805719422
F19.247
tp1809
a(F-112.820543690208
F17.748000000000001
tp1810
a(F-112.82028268085099
F18.411000000000001
tp1811
a(F-112.820022712385
F19.530000000000001
tp1812
a(F-112.819763767724
F20.649000000000001
tp1813
a(F-112.819505842456
F24.018000000000001
tp1814
a(F-112.819248931687
F17.881
tp1815
a(F-112.818992824627
F19.283999999999999
tp1816
a(F-112.818737930927
F22.667999999999999
tp1817
a(F-112.81848403710801
F23.795999999999999
tp1818
a(F-112.81823113830799
F24.574000000000002
tp1819
a(F-112.81797922967
F16.925999999999998
tp1820
a(F-112.817728306397
F26.081
tp1821
a(F-112.817478363693
F17.614000000000001
tp1822
a(F-112.81722939682101
F20.908999999999999
tp1823
a(F-112.816981401069
F23.867000000000001
tp1824
a(F-112.816734371618
F19.038
tp1825
a(F-112.816488303737
F18.524000000000001
tp1826
a(F-112.816243156789
F17.693000000000001
tp1827
a(F-112.81599899795199
F18.777999999999999
tp1828
a(F-112.815755786659
F18.355
tp1829
a(F-112.815513518115
F20.094000000000001
tp1830
a(F-112.815272187845
F18.157
tp1831
a(F-112.815031791203
F18.867000000000001
tp1832
a(F-112.81479232350701
F16.858000000000001
tp1833
a(F-112.81455378021199
F18.155000000000001
tp1834
a(F-112.81431615659299
F17.085999999999999
tp1835
a(F-112.81407944838401
F23.241
tp1836
a(F-112.81384365090599
F16.931999999999999
tp1837
a(F-112.813608759465
F20.042999999999999
tp1838
a(F-112.81337476966
F17.893999999999998
tp1839
a(F-112.813141677125
F23.135999999999999
tp1840
a(F-112.81290947727599
F17.081
tp1841
a(F-112.812678165764
F18.324999999999999
tp1842
a(F-112.81244773788001
F19.154
tp1843
a(F-112.812218189495
F18.489000000000001
tp1844
a(F-112.811989516083
F17.321000000000002
tp1845
a(F-112.81176171320099
F18.231999999999999
tp1846
a(F-112.81153483732599
F17.370999999999999
tp1847
a(F-112.811308760046
F16.992999999999999
tp1848
a(F-112.811083540242
F16.863
tp1849
a(F-112.810859173625
F21.010999999999999
tp1850
a(F-112.81063565586101
F22.696999999999999
tp1851
a(F-112.810412982763
F20.542999999999999
tp1852
a(F-112.81019114999501
F19.992000000000001
tp1853
a(F-112.809970153376
F17.815000000000001
tp1854
a(F-112.809749988601
F19.085000000000001
tp1855
a(F-112.809530651627
F18.689
tp1856
a(F-112.80931213821
F21.867000000000001
tp1857
a(F-112.809094444157
F18.975000000000001
tp1858
a(F-112.80887756537
F18.256
tp1859
a(F-112.80866149780699
F28.170999999999999
tp1860
a(F-112.808446237204
F17.579000000000001
tp1861
a(F-112.80823177977901
F20.981000000000002
tp1862
a(F-112.808018121244
F24.082999999999998
tp1863
a(F-112.807805257627
F18.259
tp1864
a(F-112.80759318476601
F18.056999999999999
tp1865
a(F-112.807381898805
F20.492999999999999
tp1866
a(F-112.807171395788
F21.213000000000001
tp1867
a(F-112.806961671723
F19.869
tp1868
a(F-112.806752722757
F18.218
tp1869
a(F-112.80654454483999
F22.626000000000001
tp1870
a(F-112.806337134087
F17.047999999999998
tp1871
a(F-112.806130486679
F19.998999999999999
tp1872
a(F-112.805924598777
F17.983000000000001
tp1873
a(F-112.805719466433
F20.332000000000001
tp1874
a(F-112.805515085843
F17.440999999999999
tp1875
a(F-112.805311453285
F22.387
tp1876
a(F-112.80510856497
F19.329000000000001
tp1877
a(F-112.804906416989
F17.244
tp1878
a(F-112.804705005763
F22.664999999999999
tp1879
a(F-112.804504327488
F17.628
tp1880
a(F-112.804304378404
F18.111000000000001
tp1881
a(F-112.804105154867
F19.626000000000001
tp1882
a(F-112.803906653179
F18.431000000000001
tp1883
a(F-112.803708937652
F21.324999999999999
tp1884
a(F-112.803511868212
F20.132000000000001
tp1885
a(F-112.80331550931599
F18.536000000000001
tp1886
a(F-112.80311985760601
F20.791
tp1887
a(F-112.802924909422
F19.481999999999999
tp1888
a(F-112.802730661075
F19.565999999999999
tp1889
a(F-112.802537109342
F18.204000000000001
tp1890
a(F-112.80234425037
F23.841999999999999
tp1891
a(F-112.802152080688
F23.826000000000001
tp1892
a(F-112.801960596836
F21.126999999999999
tp1893
a(F-112.801769795347
F24.968
tp1894
a(F-112.80157970867501
F33.298999999999999
tp1895
a(F-112.801390262978
F19.327000000000002
tp1896
a(F-112.801201489134
F19.34
tp1897
a(F-112.801013383924
F35.975000000000001
tp1898
a(F-112.800825943943
F18.594999999999999
tp1899
a(F-112.80063916592501
F17.164000000000001
tp1900
a(F-112.800453046329
F17.183
tp1901
a(F-112.80026758192
F19.260000000000002
tp1902
a(F-112.80008276941101
F20.091999999999999
tp1903
a(F-112.79989860537
F27.998000000000001
tp1904
a(F-112.79971508649901
F17.695
tp1905
a(F-112.79953220974301
F20.488
tp1906
a(F-112.799349971757
F34.488999999999997
tp1907
a(F-112.799168369328
F16.785
tp1908
a(F-112.79898739922299
F17.02
tp1909
a(F-112.798807058091
F37.890999999999998
tp1910
a(F-112.79862734304901
F19.018999999999998
tp1911
a(F-112.798448250673
F17.247
tp1912
a(F-112.798269709282
F32.052
tp1913
a(F-112.798091850448
F18.817
tp1914
a(F-112.7979146049
F24.568000000000001
tp1915
a(F-112.797737969491
F21.393000000000001
tp1916
a(F-112.79756194112601
F18.747
tp1917
a(F-112.797386517006
F17.93
tp1918
a(F-112.79721169371599
F33.170999999999999
tp1919
a(F-112.797037468494
F21.283000000000001
tp1920
a(F-112.79686383815501
F18.760000000000002
tp1921
a(F-112.796690799768
F30.155000000000001
tp1922
a(F-112.796518350526
F19.201000000000001
tp1923
a(F-112.79634648717401
F18.428999999999998
tp1924
a(F-112.796175206988
F19.978000000000002
tp1925
a(F-112.79600450699201
F17.457000000000001
tp1926
a(F-112.795834384315
F18.780000000000001
tp1927
a(F-112.79566483594
F19.064
tp1928
a(F-112.795495859144
F34.018999999999998
tp1929
a(F-112.795327450944
F18.890000000000001
tp1930
a(F-112.79515960841699
F18.32
tp1931
a(F-112.794992328951
F25.053000000000001
tp1932
a(F-112.794825609645
F29.087
tp1933
a(F-112.794659447714
F17.484999999999999
tp1934
a(F-112.794493840412
F19.969999999999999
tp1935
a(F-112.794328784916
F20.850999999999999
tp1936
a(F-112.794164278374
F24.372
tp1937
a(F-112.794000318304
F18.263999999999999
tp1938
a(F-112.793836901624
F36.948999999999998
tp1939
a(F-112.793674025942
F23.402999999999999
tp1940
a(F-112.793511688463
F35.656999999999996
tp1941
a(F-112.79334988644401
F19.041
tp1942
a(F-112.79318861735899
F51.884999999999998
tp1943
a(F-112.79302787846601
F19.876999999999999
tp1944
a(F-112.792867667335
F22.009
tp1945
a(F-112.79270798105701
F18.693999999999999
tp1946
a(F-112.792548817214
F24.803000000000001
tp1947
a(F-112.792390173089
F20.795000000000002
tp1948
a(F-112.79223204625301
F18.193999999999999
tp1949
a(F-112.792074433957
F20.331
tp1950
a(F-112.791917333887
F22.736999999999998
tp1951
a(F-112.791760743379
F17.280000000000001
tp1952
a(F-112.791604660039
F18.949999999999999
tp1953
a(F-112.79144908117701
F17.82
tp1954
a(F-112.79129400454801
F18.106999999999999
tp1955
a(F-112.79113942744
F18.358000000000001
tp1956
a(F-112.790985340329
F21.081
tp1957
a(F-112.790831828401
F22.337
tp1958
a(F-112.790678735803
F21.486999999999998
tp1959
a(F-112.79052613308799
F20.991
tp1960
a(F-112.790374017831
F22.388000000000002
tp1961
a(F-112.790222387592
F18.616
tp1962
a(F-112.790071240091
F19.646000000000001
tp1963
a(F-112.78992057294499
F18.337
tp1964
a(F-112.789770383765
F18.641999999999999
tp1965
a(F-112.789620670372
F30.411999999999999
tp1966
a(F-112.78947143023299
F20.052
tp1967
a(F-112.78932266120501
F22.795999999999999
tp1968
a(F-112.789174360828
F20.181999999999999
tp1969
a(F-112.78902652707301
F18.876999999999999
tp1970
a(F-112.788879157571
F20.672000000000001
tp1971
a(F-112.788732249986
F19.123999999999999
tp1972
a(F-112.78858580217801
F20.925000000000001
tp1973
a(F-112.78843981187801
F18.244
tp1974
a(F-112.788294276928
F18.289999999999999
tp1975
a(F-112.78814919508601
F19.501000000000001
tp1976
a(F-112.788004564142
F21.983000000000001
tp1977
a(F-112.78786038196
F18.628
tp1978
a(F-112.787716646468
F18.093
tp1979
a(F-112.78757335540401
F18.274000000000001
tp1980
a(F-112.78743050671299
F19.591999999999999
tp1981
a(F-112.78728809816
F18.224
tp1982
a(F-112.787146127678
F18.548000000000002
tp1983
a(F-112.787004593286
F21.052
tp1984
a(F-112.786863492599
F18.262
tp1985
a(F-112.78672282392399
F18.300999999999998
tp1986
a(F-112.786582585015
F18.259
tp1987
a(F-112.786442773706
F18.350999999999999
tp1988
a(F-112.78630338819001
F18.117000000000001
tp1989
a(F-112.786164426441
F19.024999999999999
tp1990
a(F-112.78602588624101
F18.640999999999998
tp1991
a(F-112.78588776562199
F18.260999999999999
tp1992
a(F-112.785750062747
F18.481999999999999
tp1993
a(F-112.785612775583
F18.393999999999998
tp1994
a(F-112.785475902583
F18.317
tp1995
a(F-112.785339440787
F18.420999999999999
tp1996
a(F-112.78520338879299
F18.376000000000001
tp1997
a(F-112.7850677447
F18.524999999999999
tp1998
a(F-112.78493250666099
F18.655000000000001
tp1999
a(F-112.784797672523
F18.946000000000002
tp2000
a(F-112.784663240643
F18.332000000000001
tp2001
a.