(lp1
(F-106.82459457363299
F2.4510000000000001
tp2
a(F-106.863312360134
F2.4359999999999999
tp3
a(F-106.901793255698
F2.4350000000000001
tp4
a(F-106.940038653773
F2.4550000000000001
tp5
a(F-106.978049928551
F2.2650000000000001
tp6
a(F-107.015828484777
F2.2610000000000001
tp7
a(F-107.053375682983
F2.6099999999999999
tp8
a(F-107.09069288952099
F2.2610000000000001
tp9
a(F-107.127781463787
F2.331
tp10
a(F-107.16464275844
F2.2690000000000001
tp11
a(F-107.201278119246
F2.2589999999999999
tp12
a(F-107.237688885194
F2.3119999999999998
tp13
a(F-107.273876388313
F2.2549999999999999
tp14
a(F-107.30984195398
F2.2720000000000002
tp15
a(F-107.345586900467
F2.2589999999999999
tp16
a(F-107.381112539299
F2.286
tp17
a(F-107.41642017513701
F2.2640000000000002
tp18
a(F-107.451511105683
F2.2770000000000001
tp19
a(F-107.486386621813
F2.27
tp20
a(F-107.521048007514
F2.3050000000000002
tp21
a(F-107.55549653985101
F2.2610000000000001
tp22
a(F-107.589733489005
F2.5750000000000002
tp23
a(F-107.623760118289
F2.2909999999999999
tp24
a(F-107.65757768411
F2.302
tp25
a(F-107.691187436026
F2.339
tp26
a(F-107.72459061665801
F2.2640000000000002
tp27
a(F-107.75778846172
F2.2930000000000001
tp28
a(F-107.790782205894
F2.2629999999999999
tp29
a(F-107.82357305931799
F2.2829999999999999
tp30
a(F-107.85616224325901
F2.3359999999999999
tp31
a(F-107.88855096601
F2.2530000000000001
tp32
a(F-107.920740428958
F2.2650000000000001
tp33
a(F-107.95273182667999
F2.2599999999999998
tp34
a(F-107.984526347006
F2.2800000000000002
tp35
a(F-108.016125170802
F2.306
tp36
a(F-108.047529472154
F2.3650000000000002
tp37
a(F-108.07874041843399
F2.3010000000000002
tp38
a(F-108.10975917006699
F2.2690000000000001
tp39
a(F-108.14058688089
F2.323
tp40
a(F-108.171224697843
F2.2629999999999999
tp41
a(F-108.20167376114701
F2.294
tp42
a(F-108.231935204282
F2.5329999999999999
tp43
a(F-108.262010154043
F2.2560000000000002
tp44
a(F-108.29189973053001
F2.2640000000000002
tp45
a(F-108.321605047147
F2.2999999999999998
tp46
a(F-108.351127210595
F2.2770000000000001
tp47
a(F-108.380467320883
F2.2690000000000001
tp48
a(F-108.40962647160499
F2.2720000000000002
tp49
a(F-108.438605747949
F2.2730000000000001
tp50
a(F-108.46740623336299
F2.2709999999999999
tp51
a(F-108.496028999955
F2.2989999999999999
tp52
a(F-108.524475114853
F2.258
tp53
a(F-108.552745638601
F2.2679999999999998
tp54
a(F-108.580841625471
F2.2749999999999999
tp55
a(F-108.608764123022
F2.29
tp56
a(F-108.636514172486
F2.2610000000000001
tp57
a(F-108.66409280862599
F3.1280000000000001
tp58
a(F-108.691501059853
F2.262
tp59
a(F-108.71873994809501
F2.508
tp60
a(F-108.745810489061
F2.2690000000000001
tp61
a(F-108.772713692048
F2.2669999999999999
tp62
a(F-108.799450560069
F2.4199999999999999
tp63
a(F-108.826022089928
F2.323
tp64
a(F-108.852429272143
F2.4449999999999998
tp65
a(F-108.87867309102199
F2.278
tp66
a(F-108.90475452467599
F2.2669999999999999
tp67
a(F-108.930674545079
F2.2599999999999998
tp68
a(F-108.95643411812701
F2.2810000000000001
tp69
a(F-108.982034203506
F2.2640000000000002
tp70
a(F-109.00747575497699
F2.2589999999999999
tp71
a(F-109.032759720191
F2.2959999999999998
tp72
a(F-109.057887040765
F2.2640000000000002
tp73
a(F-109.08285865237301
F2.2640000000000002
tp74
a(F-109.10767548480401
F2.2570000000000001
tp75
a(F-109.132338461847
F2.2759999999999998
tp76
a(F-109.156848501518
F2.331
tp77
a(F-109.181206515838
F2.282
tp78
a(F-109.20541341128001
F2.2629999999999999
tp79
a(F-109.22947008830801
F2.2959999999999998
tp80
a(F-109.25337744164401
F2.335
tp81
a(F-109.277136360426
F2.266
tp82
a(F-109.30074772805899
F2.274
tp83
a(F-109.324212422185
F2.3919999999999999
tp84
a(F-109.34753131510701
F2.2829999999999999
tp85
a(F-109.370705273328
F2.3130000000000002
tp86
a(F-109.393735157851
F2.2810000000000001
tp87
a(F-109.416621824185
F2.298
tp88
a(F-109.439366122458
F2.2800000000000002
tp89
a(F-109.46196889715
F2.351
tp90
a(F-109.484430987642
F2.5419999999999998
tp91
a(F-109.506753227635
F2.278
tp92
a(F-109.528936445664
F2.2770000000000001
tp93
a(F-109.55098146496699
F2.2890000000000001
tp94
a(F-109.572889103394
F2.29
tp95
a(F-109.594660173769
F3.363
tp96
a(F-109.616295483488
F2.2640000000000002
tp97
a(F-109.63779583496699
F2.2789999999999999
tp98
a(F-109.65916202540799
F2.286
tp99
a(F-109.68039485185
F2.27
tp100
a(F-109.701495091341
F2.3029999999999999
tp101
a(F-109.72246353110199
F2.319
tp102
a(F-109.743300948266
F2.3069999999999999
tp103
a(F-109.76400811492201
F2.274
tp104
a(F-109.784585798303
F2.806
tp105
a(F-109.805034760768
F2.306
tp106
a(F-109.825355759827
F2.3239999999999998
tp107
a(F-109.845549548154
F2.3119999999999998
tp108
a(F-109.86561687364799
F2.2949999999999999
tp109
a(F-109.88555847950801
F2.3050000000000002
tp110
a(F-109.905375104161
F2.278
tp111
a(F-109.925067481469
F2.319
tp112
a(F-109.944636340591
F2.2989999999999999
tp113
a(F-109.964082406061
F2.278
tp114
a(F-109.98340639790101
F2.3029999999999999
tp115
a(F-110.002609031516
F2.2720000000000002
tp116
a(F-110.021691017975
F2.2810000000000001
tp117
a(F-110.040653063639
F2.2800000000000002
tp118
a(F-110.05949587072099
F2.274
tp119
a(F-110.078220136832
F2.3050000000000002
tp120
a(F-110.09682655528
F2.2970000000000002
tp121
a(F-110.11531581501799
F2.2850000000000001
tp122
a(F-110.133688600743
F3.4540000000000002
tp123
a(F-110.151945592871
F2.2640000000000002
tp124
a(F-110.17008746757401
F2.2930000000000001
tp125
a(F-110.188114896827
F2.5019999999999998
tp126
a(F-110.20602854843099
F3.4980000000000002
tp127
a(F-110.223829086069
F2.3260000000000001
tp128
a(F-110.241517169313
F2.298
tp129
a(F-110.259093458441
F2.4119999999999999
tp130
a(F-110.276558595365
F2.286
tp131
a(F-110.293913230806
F2.3050000000000002
tp132
a(F-110.31115801131
F2.306
tp133
a(F-110.32829357482601
F2.2720000000000002
tp134
a(F-110.345320557045
F2.2730000000000001
tp135
a(F-110.362239589617
F2.302
tp136
a(F-110.37905130050601
F2.2810000000000001
tp137
a(F-110.39575631362101
F2.3570000000000002
tp138
a(F-110.412355249348
F2.3279999999999998
tp139
a(F-110.42884872410499
F2.2989999999999999
tp140
a(F-110.445237350714
F2.5470000000000002
tp141
a(F-110.461521738164
F2.3109999999999999
tp142
a(F-110.477702491903
F2.3039999999999998
tp143
a(F-110.493780213568
F2.282
tp144
a(F-110.50975550138899
F2.4569999999999999
tp145
a(F-110.52562894980299
F2.2709999999999999
tp146
a(F-110.541401149761
F2.2850000000000001
tp147
a(F-110.557072688692
F2.2789999999999999
tp148
a(F-110.572644150535
F2.2879999999999998
tp149
a(F-110.588116115711
F2.29
tp150
a(F-110.60348916119101
F2.282
tp151
a(F-110.618763860475
F2.2770000000000001
tp152
a(F-110.633940783844
F2.2610000000000001
tp153
a(F-110.649020497999
F2.266
tp154
a(F-110.66400356640401
F2.2919999999999998
tp155
a(F-110.67889054917001
F2.4889999999999999
tp156
a(F-110.693682003055
F2.3119999999999998
tp157
a(F-110.70837848167299
F2.8340000000000001
tp158
a(F-110.722980535296
F3.097
tp159
a(F-110.73748871105199
F2.7119999999999997
tp160
a(F-110.75190355281801
F2.5099999999999998
tp161
a(F-110.76622560121299
F2.3399999999999999
tp162
a(F-110.780455393944
F2.3159999999999998
tp163
a(F-110.79459346537
F2.5220000000000002
tp164
a(F-110.808640346884
F2.3620000000000001
tp165
a(F-110.82259653793599
F2.1189999999999998
tp166
a(F-110.83646262169501
F2.1080000000000001
tp167
a(F-110.85023909123299
F2.117
tp168
a(F-110.863926465631
F2.113
tp169
a(F-110.87752526120801
F2.2909999999999999
tp170
a(F-110.891035991102
F2.1310000000000002
tp171
a(F-110.904459164532
F2.1099999999999999
tp172
a(F-110.917795291164
F2.181
tp173
a(F-110.93104487424399
F2.1310000000000002
tp174
a(F-110.94420841544201
F2.153
tp175
a(F-110.957286413463
F2.3970000000000002
tp176
a(F-110.970279364245
F2.109
tp177
a(F-110.98318776082
F2.1179999999999999
tp178
a(F-110.996012093563
F2.1400000000000001
tp179
a(F-111.00875284995701
F2.1459999999999999
tp180
a(F-111.021410514773
F3.1909999999999998
tp181
a(F-111.03398557001999
F2.1110000000000002
tp182
a(F-111.046478495087
F2.1440000000000001
tp183
a(F-111.058889766604
F2.1499999999999999
tp184
a(F-111.071219858505
F2.1219999999999999
tp185
a(F-111.08346924206499
F2.1970000000000001
tp186
a(F-111.095638385906
F2.657
tp187
a(F-111.107727756147
F2.1070000000000002
tp188
a(F-111.119737816179
F2.1059999999999999
tp189
a(F-111.13166902677099
F2.1400000000000001
tp190
a(F-111.143521850694
F2.105
tp191
a(F-111.155296734643
F2.101
tp192
a(F-111.166994136407
F2.1619999999999999
tp193
a(F-111.17861450666
F2.1339999999999999
tp194
a(F-111.19015829362
F2.121
tp195
a(F-111.201625942904
F2.1200000000000001
tp196
a(F-111.213017897762
F2.125
tp197
a(F-111.224334598995
F2.1480000000000001
tp198
a(F-111.235576484901
F2.1960000000000002
tp199
a(F-111.24674399145201
F2.181
tp200
a(F-111.257837552133
F2.1840000000000002
tp201
a(F-111.268857598023
F2.2389999999999999
tp202
a(F-111.279804558029
F2.121
tp203
a(F-111.290678857532
F2.1080000000000001
tp204
a(F-111.301480922507
F2.1539999999999999
tp205
a(F-111.312211173701
F2.113
tp206
a(F-111.322870030527
F2.1160000000000001
tp207
a(F-111.33345791014
F2.1280000000000001
tp208
a(F-111.343975227369
F2.194
tp209
a(F-111.35442239475999
F2.1400000000000001
tp210
a(F-111.364799822647
F2.1189999999999998
tp211
a(F-111.37510791909
F2.141
tp212
a(F-111.385347089959
F2.2040000000000002
tp213
a(F-111.39551773884401
F2.1480000000000001
tp214
a(F-111.40562026699401
F2.129
tp215
a(F-111.415655073997
F2.137
tp216
a(F-111.425622556785
F2.589
tp217
a(F-111.435523113195
F2.1429999999999998
tp218
a(F-111.44535712984199
F2.1139999999999999
tp219
a(F-111.455125000495
F2.1339999999999999
tp220
a(F-111.46482711364
F2.1640000000000001
tp221
a(F-111.474463855621
F2.109
tp222
a(F-111.48403561074301
F2.1240000000000001
tp223
a(F-111.49354276118601
F2.1299999999999999
tp224
a(F-111.502985686993
F2.1189999999999998
tp225
a(F-111.51236476631
F2.133
tp226
a(F-111.521680374998
F2.1429999999999998
tp227
a(F-111.53093288705701
F2.125
tp228
a(F-111.540122674343
F2.214
tp229
a(F-111.549250106805
F2.1890000000000001
tp230
a(F-111.55831555228499
F2.1840000000000002
tp231
a(F-111.567319376638
F2.1189999999999998
tp232
a(F-111.576261943806
F2.1429999999999998
tp233
a(F-111.58514361563699
F2.1230000000000002
tp234
a(F-111.59396475215399
F2.1349999999999998
tp235
a(F-111.602725711302
F2.1709999999999998
tp236
a(F-111.611426849165
F2.1269999999999998
tp237
a(F-111.620068519813
F2.1189999999999998
tp238
a(F-111.62865107546099
F2.1110000000000002
tp239
a(F-111.63717486637999
F2.1160000000000001
tp240
a(F-111.64564024094
F2.1589999999999998
tp241
a(F-111.654047545617
F2.6659999999999999
tp242
a(F-111.66239712498999
F2.407
tp243
a(F-111.670689321803
F2.1310000000000002
tp244
a(F-111.678924476923
F3.101
tp245
a(F-111.68710292926301
F2.1120000000000001
tp246
a(F-111.695225016072
F2.496
tp247
a(F-111.703291072559
F2.5460000000000003
tp248
a(F-111.71130143228299
F2.1459999999999999
tp249
a(F-111.719256426928
F2.3359999999999999
tp250
a(F-111.72715638631399
F2.1120000000000001
tp251
a(F-111.73500163849801
F2.113
tp252
a(F-111.74279250972999
F2.113
tp253
a(F-111.75052932453001
F2.1509999999999998
tp254
a(F-111.75821240558599
F2.1110000000000002
tp255
a(F-111.765842073863
F2.8639999999999999
tp256
a(F-111.773418648529
F2.1659999999999999
tp257
a(F-111.780942447025
F2.1150000000000002
tp258
a(F-111.788413785074
F2.1659999999999999
tp259
a(F-111.795832976643
F2.1400000000000001
tp260
a(F-111.803200333972
F2.1819999999999999
tp261
a(F-111.810516167592
F2.1320000000000001
tp262
a(F-111.81778078637301
F2.1699999999999999
tp263
a(F-111.82499449744201
F2.52
tp264
a(F-111.832157606227
F2.1480000000000001
tp265
a(F-111.83927041649299
F2.1390000000000002
tp266
a(F-111.846333230352
F2.121
tp267
a(F-111.853346348221
F2.109
tp268
a(F-111.860310068847
F2.1139999999999999
tp269
a(F-111.867224691959
F2.121
tp270
a(F-111.874090507765
F2.1259999999999999
tp271
a(F-111.88090781283999
F2.2000000000000002
tp272
a(F-111.88767689939399
F2.1179999999999999
tp273
a(F-111.894398058028
F2.972
tp274
a(F-111.90107157772201
F2.1200000000000001
tp275
a(F-111.907697745862
F2.1339999999999999
tp276
a(F-111.914276848295
F2.5470000000000002
tp277
a(F-111.920809169197
F2.1080000000000001
tp278
a(F-111.927294991198
F2.1259999999999999
tp279
a(F-111.933734595378
F2.1200000000000001
tp280
a(F-111.940128261233
F2.3399999999999999
tp281
a(F-111.946476266647
F2.403
tp282
a(F-111.952778888059
F2.1320000000000001
tp283
a(F-111.959036400317
F2.1320000000000001
tp284
a(F-111.96524907668
F2.145
tp285
a(F-111.971417188354
F2.1349999999999998
tp286
a(F-111.97754100685999
F2.1219999999999999
tp287
a(F-111.98362080028799
F2.1310000000000002
tp288
a(F-111.989656835841
F2.169
tp289
a(F-111.995649379287
F2.2480000000000002
tp290
a(F-112.001598694864
F2.153
tp291
a(F-112.007505045342
F2.1480000000000001
tp292
a(F-112.013368691964
F2.3399999999999999
tp293
a(F-112.019189894581
F2.1160000000000001
tp294
a(F-112.024968911478
F2.177
tp295
a(F-112.030705999579
F2.1480000000000001
tp296
a(F-112.036401414286
F2.1859999999999999
tp297
a(F-112.04205540960901
F2.1779999999999999
tp298
a(F-112.047668238078
F2.141
tp299
a(F-112.05324015075701
F2.2690000000000001
tp300
a(F-112.05877139744899
F2.1230000000000002
tp301
a(F-112.064262226388
F2.1320000000000001
tp302
a(F-112.069712884411
F2.1139999999999999
tp303
a(F-112.075123616995
F2.1219999999999999
tp304
a(F-112.080494668201
F2.113
tp305
a(F-112.08582628068601
F2.109
tp306
a(F-112.09111869573201
F2.1539999999999999
tp307
a(F-112.096372153286
F2.1240000000000001
tp308
a(F-112.101586891788
F2.1379999999999999
tp309
a(F-112.106763148528
F2.1819999999999999
tp310
a(F-112.111901138893
F2.1400000000000001
tp311
a(F-112.11700113802
F2.8540000000000001
tp312
a(F-112.122063358633
F2.1200000000000001
tp313
a(F-112.127088032693
F2.1419999999999999
tp314
a(F-112.132075390522
F2.1219999999999999
tp315
a(F-112.137025661279
F2.2330000000000001
tp316
a(F-112.141939072738
F2.1659999999999999
tp317
a(F-112.14681585138599
F2.2949999999999999
tp318
a(F-112.151656222398
F2.165
tp319
a(F-112.15646040964501
F2.1179999999999999
tp320
a(F-112.161228635749
F2.1150000000000002
tp321
a(F-112.16596112197
F2.109
tp322
a(F-112.170658088338
F2.6859999999999999
tp323
a(F-112.17531975356999
F2.3029999999999999
tp324
a(F-112.179946335152
F2.1240000000000001
tp325
a(F-112.18453804925601
F2.1299999999999999
tp326
a(F-112.189095110841
F2.1110000000000002
tp327
a(F-112.193617733634
F2.1339999999999999
tp328
a(F-112.198106130054
F2.1360000000000001
tp329
a(F-112.202560511299
F2.1779999999999999
tp330
a(F-112.206981087397
F2.1139999999999999
tp331
a(F-112.211368067042
F2.113
tp332
a(F-112.215721657806
F2.1110000000000002
tp333
a(F-112.220042065969
F2.1080000000000001
tp334
a(F-112.22432949670301
F2.1440000000000001
tp335
a(F-112.228584153369
F2.1320000000000001
tp336
a(F-112.23280623972499
F2.1259999999999999
tp337
a(F-112.236995956759
F2.1699999999999999
tp338
a(F-112.241153504805
F2.1259999999999999
tp339
a(F-112.245279083006
F2.1240000000000001
tp340
a(F-112.24937288936199
F2.2469999999999999
tp341
a(F-112.253435120695
F2.161
tp342
a(F-112.257465972655
F2.2519999999999998
tp343
a(F-112.26146563976
F2.113
tp344
a(F-112.265434315354
F2.5910000000000002
tp345
a(F-112.26937219165301
F2.1310000000000002
tp346
a(F-112.27327945971599
F2.1240000000000001
tp347
a(F-112.277156309494
F2.4020000000000001
tp348
a(F-112.28100292983
F2.1669999999999998
tp349
a(F-112.28481950839
F2.1890000000000001
tp350
a(F-112.28860623177501
F2.7880000000000003
tp351
a(F-112.292363285465
F2.1669999999999998
tp352
a(F-112.296090853827
F2.1390000000000002
tp353
a(F-112.299789121936
F2.7269999999999999
tp354
a(F-112.303458268296
F2.375
tp355
a(F-112.307098475888
F2.1779999999999999
tp356
a(F-112.310709924761
F2.1880000000000002
tp357
a(F-112.31429279382
F2.173
tp358
a(F-112.317847260972
F2.1219999999999999
tp359
a(F-112.321373503031
F2.1349999999999998
tp360
a(F-112.32487169573901
F2.2280000000000002
tp361
a(F-112.328342013813
F2.1360000000000001
tp362
a(F-112.331784630927
F2.1310000000000002
tp363
a(F-112.335199719668
F3.6680000000000001
tp364
a(F-112.33858745165099
F2.1240000000000001
tp365
a(F-112.341947997435
F2.1579999999999999
tp366
a(F-112.345281531976
F2.1749999999999998
tp367
a(F-112.348588213029
F2.23
tp368
a(F-112.351868213431
F2.1779999999999999
tp369
a(F-112.355121699666
F2.1720000000000002
tp370
a(F-112.358348837214
F2.133
tp371
a(F-112.36154979058701
F2.1179999999999999
tp372
a(F-112.36472472329
F2.1960000000000002
tp373
a(F-112.367873797836
F2.198
tp374
a(F-112.370997175778
F2.198
tp375
a(F-112.374095017654
F2.2080000000000002
tp376
a(F-112.377167483061
F9.9860000000000007
tp377
a(F-112.380214730643
F2.847
tp378
a(F-112.383236918034
F2.1760000000000002
tp379
a(F-112.38623420193601
F2.1709999999999998
tp380
a(F-112.38920673821301
F2.1739999999999999
tp381
a(F-112.392154681626
F2.1669999999999998
tp382
a(F-112.395078186059
F2.1349999999999998
tp383
a(F-112.397977404481
F2.2999999999999998
tp384
a(F-112.400852488868
F2.3740000000000001
tp385
a(F-112.40370359037399
F2.1440000000000001
tp386
a(F-112.40653085914199
F2.1339999999999999
tp387
a(F-112.409334444487
F2.1379999999999999
tp388
a(F-112.412114494756
F2.2050000000000001
tp389
a(F-112.414871157403
F2.1360000000000001
tp390
a(F-112.417604579016
F2.2010000000000001
tp391
a(F-112.420314905227
F2.1429999999999998
tp392
a(F-112.42300228085
F2.1419999999999999
tp393
a(F-112.42566684979001
F2.1349999999999998
tp394
a(F-112.428308755042
F2.121
tp395
a(F-112.43092813877399
F2.133
tp396
a(F-112.43352514230099
F2.121
tp397
a(F-112.436099906032
F2.1819999999999999
tp398
a(F-112.43865256951599
F2.1520000000000001
tp399
a(F-112.441183271493
F2.1230000000000002
tp400
a(F-112.443692149833
F2.169
tp401
a(F-112.446179341502
F2.1400000000000001
tp402
a(F-112.448644982787
F2.1320000000000001
tp403
a(F-112.451089209011
F2.1429999999999998
tp404
a(F-112.45351215469
F2.1579999999999999
tp405
a(F-112.455913953497
F2.3100000000000001
tp406
a(F-112.458294738305
F2.3860000000000001
tp407
a(F-112.460654641286
F2.1480000000000001
tp408
a(F-112.46299379362399
F2.1819999999999999
tp409
a(F-112.46531232581199
F2.1299999999999999
tp410
a(F-112.46761036747201
F2.2109999999999999
tp411
a(F-112.46988804749699
F2.1200000000000001
tp412
a(F-112.47214549394199
F2.129
tp413
a(F-112.47438283410099
F2.1310000000000002
tp414
a(F-112.476600194483
F2.1179999999999999
tp415
a(F-112.478797700798
F2.117
tp416
a(F-112.48097547801601
F2.29
tp417
a(F-112.483133650349
F2.121
tp418
a(F-112.485272341189
F2.1669999999999998
tp419
a(F-112.487391673218
F2.1259999999999999
tp420
a(F-112.489491768364
F2.2519999999999998
tp421
a(F-112.49157274779
F2.1859999999999999
tp422
a(F-112.493634731889
F2.137
tp423
a(F-112.49567784036699
F2.2519999999999998
tp424
a(F-112.497702192152
F2.1189999999999998
tp425
a(F-112.49970790546099
F2.177
tp426
a(F-112.501695097782
F2.3999999999999999
tp427
a(F-112.50366388587599
F2.149
tp428
a(F-112.505614385789
F2.2029999999999998
tp429
a(F-112.507546712845
F2.1349999999999998
tp430
a(F-112.50946098168301
F2.2050000000000001
tp431
a(F-112.51135730593001
F2.222
tp432
a(F-112.513235799295
F2.1779999999999999
tp433
a(F-112.515096574051
F2.1440000000000001
tp434
a(F-112.516939742052
F2.218
tp435
a(F-112.51876541438
F2.1419999999999999
tp436
a(F-112.52057370147899
F2.1200000000000001
tp437
a(F-112.52236471316201
F2.2410000000000001
tp438
a(F-112.524138558518
F2.133
tp439
a(F-112.525895345558
F2.1189999999999998
tp440
a(F-112.52763518273299
F2.153
tp441
a(F-112.529358176855
F2.129
tp442
a(F-112.53106443426999
F2.1440000000000001
tp443
a(F-112.53275406077501
F2.133
tp444
a(F-112.53442716148599
F2.1269999999999998
tp445
a(F-112.53608384083
F2.1480000000000001
tp446
a(F-112.53772420268901
F2.4710000000000001
tp447
a(F-112.539348350202
F2.117
tp448
a(F-112.54095638593699
F2.125
tp449
a(F-112.542548411807
F2.1259999999999999
tp450
a(F-112.544124529063
F2.157
tp451
a(F-112.545684838353
F2.1539999999999999
tp452
a(F-112.547229439803
F2.1240000000000001
tp453
a(F-112.548758432781
F2.1699999999999999
tp454
a(F-112.550271916106
F2.1429999999999998
tp455
a(F-112.55176998793701
F2.1749999999999998
tp456
a(F-112.55325274589499
F2.8519999999999999
tp457
a(F-112.554720286966
F2.1280000000000001
tp458
a(F-112.55617270754
F2.117
tp459
a(F-112.557610103426
F2.1390000000000002
tp460
a(F-112.559032569823
F2.423
tp461
a(F-112.560440201292
F2.125
tp462
a(F-112.561833091973
F2.1339999999999999
tp463
a(F-112.56321133527101
F2.1150000000000002
tp464
a(F-112.56457502408
F2.508
tp465
a(F-112.56592425069201
F2.1890000000000001
tp466
a(F-112.567259106837
F2.1189999999999998
tp467
a(F-112.568579683699
F2.1269999999999998
tp468
a(F-112.56988607187699
F2.1189999999999998
tp469
a(F-112.571178361417
F2.1379999999999999
tp470
a(F-112.572456641823
F2.1749999999999998
tp471
a(F-112.573721002036
F2.1419999999999999
tp472
a(F-112.574971530461
F2.1299999999999999
tp473
a(F-112.576208314927
F2.177
tp474
a(F-112.577431442742
F2.177
tp475
a(F-112.578641000684
F2.125
tp476
a(F-112.579837075003
F2.1179999999999999
tp477
a(F-112.581019752119
F2.1189999999999998
tp478
a(F-112.582189115714
F4.1699999999999999
tp479
a(F-112.583345251217
F2.1480000000000001
tp480
a(F-112.584488242747
F2.1280000000000001
tp481
a(F-112.58561817390699
F2.1200000000000001
tp482
a(F-112.5867351278
F3.5819999999999999
tp483
a(F-112.587839187021
F2.2410000000000001
tp484
a(F-112.588930433626
F2.1480000000000001
tp485
a(F-112.590008949205
F2.1499999999999999
tp486
a(F-112.591074814828
F2.1230000000000002
tp487
a(F-112.59212811104599
F2.2040000000000002
tp488
a(F-112.59316891794801
F2.153
tp489
a(F-112.59419731508601
F2.1240000000000001
tp490
a(F-112.59521338160501
F2.1419999999999999
tp491
a(F-112.59621719608199
F2.1230000000000002
tp492
a(F-112.597208969536
F2.5899999999999999
tp493
a(F-112.59818851459301
F2.294
tp494
a(F-112.59915604055099
F2.3300000000000001
tp495
a(F-112.600111624105
F2.2909999999999999
tp496
a(F-112.60105534147201
F2.3039999999999998
tp497
a(F-112.60198726838399
F2.512
tp498
a(F-112.60290748011801
F2.2770000000000001
tp499
a(F-112.603816051485
F2.2800000000000002
tp500
a(F-112.604713057851
F2.2759999999999998
tp501
a(F-112.605598571187
F2.2919999999999998
tp502
a(F-112.60647266590399
F2.3140000000000001
tp503
a(F-112.607335414906
F2.2909999999999999
tp504
a(F-112.608186890936
F2.2869999999999999
tp505
a(F-112.609027165989
F2.2829999999999999
tp506
a(F-112.60985631181499
F2.3130000000000002
tp507
a(F-112.610674399598
F2.2999999999999998
tp508
a(F-112.61148150013101
F2.3490000000000002
tp509
a(F-112.61227768376
F2.2959999999999998
tp510
a(F-112.613063020421
F2.2789999999999999
tp511
a(F-112.613837579609
F2.3359999999999999
tp512
a(F-112.614601430299
F3.3730000000000002
tp513
a(F-112.61535464124999
F2.2810000000000001
tp514
a(F-112.61609728076201
F2.2989999999999999
tp515
a(F-112.61682941649801
F2.2850000000000001
tp516
a(F-112.61755111593401
F2.2869999999999999
tp517
a(F-112.618262446044
F2.4900000000000002
tp518
a(F-112.618963473408
F2.3660000000000001
tp519
a(F-112.619654264134
F2.2919999999999998
tp520
a(F-112.62033488403399
F2.2879999999999998
tp521
a(F-112.62100539846099
F2.3050000000000002
tp522
a(F-112.621665872337
F2.3410000000000002
tp523
a(F-112.622316370311
F3.4460000000000002
tp524
a(F-112.62295695648
F2.29
tp525
a(F-112.62358769465401
F2.2890000000000001
tp526
a(F-112.62420864820599
F2.387
tp527
a(F-112.62481988015099
F2.2829999999999999
tp528
a(F-112.62542145308601
F2.2810000000000001
tp529
a(F-112.626013429266
F2.2850000000000001
tp530
a(F-112.626595870451
F2.278
tp531
a(F-112.627168838275
F3.4089999999999998
tp532
a(F-112.627732393785
F2.2879999999999998
tp533
a(F-112.628286597718
F2.3860000000000001
tp534
a(F-112.6288315104
F2.2789999999999999
tp535
a(F-112.629367191846
F2.2749999999999999
tp536
a(F-112.62989369975401
F2.2810000000000001
tp537
a(F-112.630411097227
F2.2909999999999999
tp538
a(F-112.630919441337
F2.3100000000000001
tp539
a(F-112.63141879056199
F2.2970000000000002
tp540
a(F-112.631909203072
F2.581
tp541
a(F-112.632390736712
F2.548
tp542
a(F-112.63286344880299
F2.3039999999999998
tp543
a(F-112.633327396775
F2.3109999999999999
tp544
a(F-112.633782637327
F2.4980000000000002
tp545
a(F-112.63422922685101
F2.3050000000000002
tp546
a(F-112.634667221431
F2.2909999999999999
tp547
a(F-112.635096676871
F2.2850000000000001
tp548
a(F-112.63551764859599
F2.298
tp549
a(F-112.635930191631
F2.3090000000000002
tp550
a(F-112.636334360799
F2.3149999999999999
tp551
a(F-112.63673021044301
F2.2839999999999998
tp552
a(F-112.63711779473
F2.2970000000000002
tp553
a(F-112.637497167392
F2.2839999999999998
tp554
a(F-112.637868381874
F2.2869999999999999
tp555
a(F-112.638231491252
F2.294
tp556
a(F-112.638586548361
F2.2879999999999998
tp557
a(F-112.638933605662
F2.2949999999999999
tp558
a(F-112.639272715313
F2.2850000000000001
tp559
a(F-112.639603929111
F2.2869999999999999
tp560
a(F-112.639927298638
F2.5409999999999999
tp561
a(F-112.640242875082
F2.2970000000000002
tp562
a(F-112.640550709339
F2.2879999999999998
tp563
a(F-112.640850851975
F2.2999999999999998
tp564
a(F-112.641143353307
F2.2839999999999998
tp565
a(F-112.641428263406
F2.2850000000000001
tp566
a(F-112.641705631915
F2.2829999999999999
tp567
a(F-112.641975508166
F2.3599999999999999
tp568
a(F-112.64223794129801
F2.3010000000000002
tp569
a(F-112.642492980054
F2.5960000000000001
tp570
a(F-112.64274067295
F2.2989999999999999
tp571
a(F-112.642981068243
F2.3039999999999998
tp572
a(F-112.643214213824
F2.2970000000000002
tp573
a(F-112.643440157299
F2.2850000000000001
tp574
a(F-112.64365894601799
F2.3140000000000001
tp575
a(F-112.643870627026
F2.2879999999999998
tp576
a(F-112.64407524711299
F2.2810000000000001
tp577
a(F-112.644272852771
F2.294
tp578
a(F-112.644463490191
F2.2909999999999999
tp579
a(F-112.644647205338
F2.2879999999999998
tp580
a(F-112.644824043836
F2.2800000000000002
tp581
a(F-112.64499405108801
F2.2869999999999999
tp582
a(F-112.645157272212
F2.2839999999999998
tp583
a(F-112.645313752037
F2.29
tp584
a(F-112.64546353511599
F2.29
tp585
a(F-112.64560666579
F4.6449999999999996
tp586
a(F-112.64574318821499
F2.3050000000000002
tp587
a(F-112.64587314590401
F2.331
tp588
a(F-112.64599658245
F2.2850000000000001
tp589
a(F-112.646113541194
F2.351
tp590
a(F-112.646224065111
F2.294
tp591
a(F-112.64632819689299
F2.3460000000000001
tp592
a(F-112.64642597904
F2.29
tp593
a(F-112.64651745378301
F2.6259999999999999
tp594
a(F-112.646602663059
F2.298
tp595
a(F-112.646681648579
F2.302
tp596
a(F-112.64675445191899
F2.323
tp597
a(F-112.646821114242
F2.351
tp598
a(F-112.646881676516
F2.387
tp599
a(F-112.646936179489
F3.4710000000000001
tp600
a(F-112.64698466362
F2.9870000000000001
tp601
a(F-112.64702716890299
F2.3079999999999998
tp602
a(F-112.647063735914
F2.3290000000000002
tp603
a(F-112.647094404261
F2.2989999999999999
tp604
a(F-112.64711921323099
F2.2909999999999999
tp605
a(F-112.64713820218
F2.3010000000000002
tp606
a(F-112.64715141027099
F2.2909999999999999
tp607
a(F-112.647158876313
F2.2909999999999999
tp608
a(F-112.647160638877
F2.323
tp609
a(F-112.64715673623699
F3.2629999999999999
tp610
a(F-112.647147206756
F2.2930000000000001
tp611
a(F-112.647132088227
F2.2839999999999998
tp612
a(F-112.64711141833401
F2.3010000000000002
tp613
a(F-112.64708523458501
F2.3180000000000001
tp614
a(F-112.647053574159
F3.919
tp615
a(F-112.647016474027
F2.2999999999999998
tp616
a(F-112.646973970944
F2.282
tp617
a(F-112.646926103651
F2.2959999999999998
tp618
a(F-112.646872904623
F2.3810000000000002
tp619
a(F-112.64681441187101
F2.355
tp620
a(F-112.646750661327
F2.3620000000000001
tp621
a(F-112.646681688727
F2.9870000000000001
tp622
a(F-112.646607529552
F2.5550000000000002
tp623
a(F-112.646528219131
F2.3109999999999999
tp624
a(F-112.646443792513
F2.6710000000000003
tp625
a(F-112.646354284631
F2.3380000000000001
tp626
a(F-112.646259730179
F2.2930000000000001
tp627
a(F-112.646160163597
F2.2919999999999998
tp628
a(F-112.646055619159
F2.298
tp629
a(F-112.645946130928
F2.2850000000000001
tp630
a(F-112.64583173276201
F2.2810000000000001
tp631
a(F-112.645712458337
F2.2959999999999998
tp632
a(F-112.645588341121
F2.282
tp633
a(F-112.645459414369
F2.2829999999999999
tp634
a(F-112.645325711165
F2.306
tp635
a(F-112.645187264263
F2.399
tp636
a(F-112.64504410657899
F2.3079999999999998
tp637
a(F-112.644896270472
F2.3100000000000001
tp638
a(F-112.644743788261
F2.3239999999999998
tp639
a(F-112.64458669203999
F2.298
tp640
a(F-112.64442501368499
F2.335
tp641
a(F-112.644258785031
F2.319
tp642
a(F-112.64408803751201
F2.2970000000000002
tp643
a(F-112.64391280260401
F2.306
tp644
a(F-112.64373311132699
F2.2989999999999999
tp645
a(F-112.643548994847
F2.3079999999999998
tp646
a(F-112.643360483899
F2.2959999999999998
tp647
a(F-112.64316760908299
F2.3159999999999998
tp648
a(F-112.64297040086799
F2.3250000000000002
tp649
a(F-112.64276888952
F2.4300000000000002
tp650
a(F-112.642563105131
F3.5049999999999999
tp651
a(F-112.64235307763001
F2.3069999999999999
tp652
a(F-112.64213883672601
F2.6109999999999998
tp653
a(F-112.641920412009
F2.3279999999999998
tp654
a(F-112.641697846898
F2.5140000000000002
tp655
a(F-112.641471142863
F2.4710000000000001
tp656
a(F-112.64124034256299
F3.25
tp657
a(F-112.641005474948
F3.3210000000000002
tp658
a(F-112.640766568792
F2.456
tp659
a(F-112.640523652608
F2.4550000000000001
tp660
a(F-112.640276754764
F2.5019999999999998
tp661
a(F-112.64002590346
F2.4710000000000001
tp662
a(F-112.639771126753
F2.4670000000000001
tp663
a(F-112.63951245242301
F4.5700000000000003
tp664
a(F-112.639249908376
F2.613
tp665
a(F-112.63898352204301
F2.5230000000000001
tp666
a(F-112.63871332087
F2.488
tp667
a(F-112.638439332058
F2.464
tp668
a(F-112.63816158269201
F2.472
tp669
a(F-112.637880099661
F2.4859999999999998
tp670
a(F-112.637594909765
F2.5979999999999999
tp671
a(F-112.637306039584
F2.7989999999999999
tp672
a(F-112.637013515573
F2.4729999999999999
tp673
a(F-112.636717364028
F2.5099999999999998
tp674
a(F-112.636417611076
F2.5300000000000002
tp675
a(F-112.63611428271599
F2.4699999999999998
tp676
a(F-112.635807404785
F2.4710000000000001
tp677
a(F-112.63549700295999
F2.4489999999999998
tp678
a(F-112.635183102794
F2.456
tp679
a(F-112.634865729673
F2.4710000000000001
tp680
a(F-112.634544908835
F2.9710000000000001
tp681
a(F-112.63422066547
F2.4820000000000002
tp682
a(F-112.633893024291
F2.456
tp683
a(F-112.63356201027101
F2.4740000000000002
tp684
a(F-112.63322764803
F2.468
tp685
a(F-112.63288996212999
F2.464
tp686
a(F-112.63254897689301
F2.4620000000000002
tp687
a(F-112.63220471654201
F2.8199999999999998
tp688
a(F-112.631857205214
F2.464
tp689
a(F-112.631506466836
F2.4779999999999998
tp690
a(F-112.631152525194
F2.46
tp691
a(F-112.630795404065
F2.456
tp692
a(F-112.630435126892
F2.5190000000000001
tp693
a(F-112.630071717112
F2.4500000000000002
tp694
a(F-112.629705197978
F2.4750000000000001
tp695
a(F-112.629335592678
F2.4510000000000001
tp696
a(F-112.62896292412201
F2.4630000000000001
tp697
a(F-112.628587215224
F2.464
tp698
a(F-112.628208488708
F2.468
tp699
a(F-112.627826767126
F2.4660000000000002
tp700
a(F-112.62744207304399
F2.4990000000000001
tp701
a(F-112.627054428739
F2.7000000000000002
tp702
a(F-112.626663856457
F2.4820000000000002
tp703
a(F-112.626270378291
F2.476
tp704
a(F-112.62587401615799
F4.4630000000000001
tp705
a(F-112.62547479190999
F2.4540000000000002
tp706
a(F-112.62507272723801
F2.46
tp707
a(F-112.624667843751
F2.4500000000000002
tp708
a(F-112.62426016286901
F2.4540000000000002
tp709
a(F-112.62384970594699
F2.4500000000000002
tp710
a(F-112.62343649415899
F2.4750000000000001
tp711
a(F-112.623020548623
F2.456
tp712
a(F-112.622601890308
F2.581
tp713
a(F-112.622180540025
F2.4630000000000001
tp714
a(F-112.62175651851101
F2.4529999999999998
tp715
a(F-112.621329846381
F2.4670000000000001
tp716
a(F-112.620900544115
F2.4529999999999998
tp717
a(F-112.620468632068
F2.4950000000000001
tp718
a(F-112.620034130512
F2.484
tp719
a(F-112.619597059578
F2.4609999999999999
tp720
a(F-112.61915743927401
F2.452
tp721
a(F-112.618715289498
F2.4529999999999998
tp722
a(F-112.618270629951
F2.4830000000000001
tp723
a(F-112.617823480468
F2.4630000000000001
tp724
a(F-112.617373860599
F2.4540000000000002
tp725
a(F-112.616921789735
F2.4660000000000002
tp726
a(F-112.61646728722801
F2.456
tp727
a(F-112.61601037230299
F2.48
tp728
a(F-112.615551064082
F2.4710000000000001
tp729
a(F-112.615089381554
F2.4769999999999999
tp730
a(F-112.614625343573
F2.4580000000000002
tp731
a(F-112.614158969043
F2.4820000000000002
tp732
a(F-112.61369027660101
F2.472
tp733
a(F-112.613219285855
F2.4540000000000002
tp734
a(F-112.612746013158
F2.5699999999999998
tp735
a(F-112.612270477942
F2.5009999999999999
tp736
a(F-112.611792698478
F2.4510000000000001
tp737
a(F-112.61131269290399
F2.4500000000000002
tp738
a(F-112.610830479298
F2.4529999999999998
tp739
a(F-112.61034607559201
F2.6240000000000001
tp740
a(F-112.609859499571
F2.4489999999999998
tp741
a(F-112.609370769088
F2.4449999999999998
tp742
a(F-112.60887990174
F2.4630000000000001
tp743
a(F-112.608386915059
F2.4620000000000002
tp744
a(F-112.60789182648
F2.8159999999999998
tp745
a(F-112.607394653355
F2.4359999999999999
tp746
a(F-112.606895412914
F2.4449999999999998
tp747
a(F-112.606394122315
F2.4380000000000002
tp748
a(F-112.60589079859
F2.444
tp749
a(F-112.605385458691
F2.452
tp750
a(F-112.60487811947699
F2.4409999999999998
tp751
a(F-112.604368797674
F2.4430000000000001
tp752
a(F-112.603857509975
F2.4929999999999999
tp753
a(F-112.60334427289401
F2.4390000000000001
tp754
a(F-112.602829102979
F4.7910000000000004
tp755
a(F-112.602312016555
F3.0529999999999999
tp756
a(F-112.601793029926
F2.4380000000000002
tp757
a(F-112.60127215927101
F2.4449999999999998
tp758
a(F-112.60074942068501
F2.5670000000000002
tp759
a(F-112.600224830171
F2.4369999999999998
tp760
a(F-112.599698403669
F2.4399999999999999
tp761
a(F-112.59917015698601
F2.4990000000000001
tp762
a(F-112.598640105843
F2.4620000000000002
tp763
a(F-112.59810826585
F2.4500000000000002
tp764
a(F-112.597574652661
F2.4369999999999998
tp765
a(F-112.597039281685
F2.4750000000000001
tp766
a(F-112.596502168291
F2.4470000000000001
tp767
a(F-112.595963327813
F2.4630000000000001
tp768
a(F-112.59542277542801
F2.7410000000000001
tp769
a(F-112.59488052625601
F2.4390000000000001
tp770
a(F-112.594336595336
F2.4460000000000002
tp771
a(F-112.593790997589
F2.4420000000000002
tp772
a(F-112.59324374792899
F2.4460000000000002
tp773
a(F-112.59269486107701
F2.4409999999999998
tp774
a(F-112.59214435176899
F2.452
tp775
a(F-112.591592234602
F2.4329999999999998
tp776
a(F-112.59103852406901
F2.4630000000000001
tp777
a(F-112.590483234689
F2.5640000000000001
tp778
a(F-112.589926380777
F2.4460000000000002
tp779
a(F-112.589367976625
F2.4300000000000002
tp780
a(F-112.588808036396
F2.4689999999999999
tp781
a(F-112.588246574275
F2.4859999999999998
tp782
a(F-112.587683604272
F2.8239999999999998
tp783
a(F-112.58711914034799
F2.4649999999999999
tp784
a(F-112.58655319638601
F2.742
tp785
a(F-112.58598578616299
F2.452
tp786
a(F-112.58541692338601
F2.4580000000000002
tp787
a(F-112.584846621784
F2.5259999999999998
tp788
a(F-112.584274894836
F2.7400000000000002
tp789
a(F-112.583701756135
F2.4529999999999998
tp790
a(F-112.583127219038
F2.456
tp791
a(F-112.58255129688899
F2.4409999999999998
tp792
a(F-112.581974002953
F2.4489999999999998
tp793
a(F-112.581395350424
F2.5169999999999999
tp794
a(F-112.580815352397
F2.508
tp795
a(F-112.580234021937
F2.5249999999999999
tp796
a(F-112.579651371981
F2.4449999999999998
tp797
a(F-112.579067412718
F3.294
tp798
a(F-112.57848216241599
F2.4380000000000002
tp799
a(F-112.577895630832
F2.4470000000000001
tp800
a(F-112.57730783089799
F3.008
tp801
a(F-112.576718775232
F2.4580000000000002
tp802
a(F-112.576128476338
F2.528
tp803
a(F-112.575536946637
F2.4670000000000001
tp804
a(F-112.574944198634
F2.4980000000000002
tp805
a(F-112.57435024457899
F2.5019999999999998
tp806
a(F-112.573755096733
F2.4529999999999998
tp807
a(F-112.573158767271
F70.013000000000005
tp808
a(F-112.57256126833499
F2.4510000000000001
tp809
a(F-112.571962611928
F3.2690000000000001
tp810
a(F-112.571362810059
F2.448
tp811
a(F-112.57076187460299
F2.4420000000000002
tp812
a(F-112.570159817445
F2.4540000000000002
tp813
a(F-112.569556650311
F2.4489999999999998
tp814
a(F-112.568952384935
F2.4359999999999999
tp815
a(F-112.56834703295701
F2.4670000000000001
tp816
a(F-112.567740605941
F2.4500000000000002
tp817
a(F-112.56713311541399
F2.456
tp818
a(F-112.56652457281101
F2.452
tp819
a(F-112.565914989503
F3.3010000000000002
tp820
a(F-112.565304376821
F2.4500000000000002
tp821
a(F-112.56469274605
F4.3600000000000003
tp822
a(F-112.56408010833501
F2.4460000000000002
tp823
a(F-112.56346647482
F2.7890000000000001
tp824
a(F-112.562851856554
F2.464
tp825
a(F-112.562236264514
F2.9199999999999999
tp826
a(F-112.561619709705
F2.4649999999999999
tp827
a(F-112.561002202917
F2.5529999999999999
tp828
a(F-112.560383755061
F2.6680000000000001
tp829
a(F-112.559764376858
F2.7250000000000001
tp830
a(F-112.55914407895899
F2.4779999999999998
tp831
a(F-112.55852287206601
F2.4609999999999999
tp832
a(F-112.557900766716
F2.7560000000000002
tp833
a(F-112.557277773425
F2.4740000000000002
tp834
a(F-112.556653902642
F2.4809999999999999
tp835
a(F-112.55602916472699
F2.4790000000000001
tp836
a(F-112.555403570102
F2.4470000000000001
tp837
a(F-112.554777128913
F2.4769999999999999
tp838
a(F-112.554149851563
F2.456
tp839
a(F-112.553521748119
F2.5640000000000001
tp840
a(F-112.552892828694
F2.4969999999999999
tp841
a(F-112.552263103332
F2.4470000000000001
tp842
a(F-112.551632582026
F2.4859999999999998
tp843
a(F-112.551001274724
F2.4510000000000001
tp844
a(F-112.550369191291
F2.4889999999999999
tp845
a(F-112.549736341558
F2.677
tp846
a(F-112.549102735294
F2.4550000000000001
tp847
a(F-112.54846838220099
F2.4489999999999998
tp848
a(F-112.547833291998
F2.444
tp849
a(F-112.54719747420801
F2.4740000000000002
tp850
a(F-112.546560938418
F2.4550000000000001
tp851
a(F-112.545923694829
F2.5190000000000001
tp852
a(F-112.545285751458
F2.4889999999999999
tp853
a(F-112.544647118431
F2.4710000000000001
tp854
a(F-112.54400780507
F2.492
tp855
a(F-112.543367820662
F2.7439999999999998
tp856
a(F-112.54272717444999
F2.472
tp857
a(F-112.54208587561401
F2.472
tp858
a(F-112.54144400752099
F2.6520000000000001
tp859
a(F-112.540801431817
F2.6280000000000001
tp860
a(F-112.540158230751
F2.9100000000000001
tp861
a(F-112.539514413262
F2.6429999999999998
tp862
a(F-112.538869988312
F2.6459999999999999
tp863
a(F-112.538224964767
F2.6440000000000001
tp864
a(F-112.53757935145801
F2.6189999999999998
tp865
a(F-112.536933157158
F2.669
tp866
a(F-112.53628639059301
F2.6219999999999999
tp867
a(F-112.535639060406
F3.0609999999999999
tp868
a(F-112.53499117531901
F2.6280000000000001
tp869
a(F-112.534342743849
F2.6240000000000001
tp870
a(F-112.53369377455699
F2.6109999999999998
tp871
a(F-112.533044275913
F2.6150000000000002
tp872
a(F-112.53239425636001
F2.6240000000000001
tp873
a(F-112.53174372427701
F2.609
tp874
a(F-112.531092687955
F2.6150000000000002
tp875
a(F-112.53044115583501
F2.6779999999999999
tp876
a(F-112.52978913608899
F2.6560000000000001
tp877
a(F-112.529136636925
F2.6219999999999999
tp878
a(F-112.528483666501
F2.6139999999999999
tp879
a(F-112.527830232931
F2.6120000000000001
tp880
a(F-112.527176344267
F2.6080000000000001
tp881
a(F-112.526522008565
F2.9980000000000002
tp882
a(F-112.525867233789
F2.6339999999999999
tp883
a(F-112.525212027812
F2.6480000000000001
tp884
a(F-112.524556398641
F2.6699999999999999
tp885
a(F-112.52390035406199
F2.621
tp886
a(F-112.523243901887
F2.6379999999999999
tp887
a(F-112.52258704984401
F2.7010000000000001
tp888
a(F-112.521929805704
F2.6909999999999998
tp889
a(F-112.521272177093
F2.742
tp890
a(F-112.52061417165601
F3.3929999999999998
tp891
a(F-112.519955796979
F2.7690000000000001
tp892
a(F-112.519297060612
F2.7800000000000002
tp893
a(F-112.518637970049
F2.7690000000000001
tp894
a(F-112.517978532749
F2.7650000000000001
tp895
a(F-112.517318756104
F2.9539999999999997
tp896
a(F-112.51665864756301
F2.7880000000000003
tp897
a(F-112.515998214389
F2.782
tp898
a(F-112.515337463968
F2.774
tp899
a(F-112.514676403504
F2.7509999999999999
tp900
a(F-112.51401504023001
F2.835
tp901
a(F-112.513353381312
F2.8519999999999999
tp902
a(F-112.51269143387999
F2.7759999999999998
tp903
a(F-112.512029205034
F2.8479999999999999
tp904
a(F-112.511366701838
F2.7850000000000001
tp905
a(F-112.510703931309
F2.899
tp906
a(F-112.510040900433
F2.7949999999999999
tp907
a(F-112.50937761614099
F2.7570000000000001
tp908
a(F-112.508714085352
F2.782
tp909
a(F-112.508050314928
F2.8719999999999999
tp910
a(F-112.50738631169899
F2.7890000000000001
tp911
a(F-112.50672208246
F2.7850000000000001
tp912
a(F-112.506057633936
F2.7650000000000001
tp913
a(F-112.505392972864
F2.7919999999999998
tp914
a(F-112.504728105921
F2.8970000000000002
tp915
a(F-112.50406303975601
F2.7919999999999998
tp916
a(F-112.503397780973
F2.7599999999999998
tp917
a(F-112.50273233614701
F2.8180000000000001
tp918
a(F-112.502066711811
F2.7650000000000001
tp919
a(F-112.501400914454
F2.7709999999999999
tp920
a(F-112.50073495053201
F2.871
tp921
a(F-112.50006882652499
F2.7789999999999999
tp922
a(F-112.49940254878599
F2.7509999999999999
tp923
a(F-112.49873612369301
F2.8220000000000001
tp924
a(F-112.49806955757199
F2.8529999999999998
tp925
a(F-112.49740285668101
F2.7829999999999999
tp926
a(F-112.496736027293
F2.7930000000000001
tp927
a(F-112.496069075638
F2.7960000000000003
tp928
a(F-112.495402007914
F3.359
tp929
a(F-112.494734830185
F2.794
tp930
a(F-112.494067548727
F2.8109999999999999
tp931
a(F-112.493400169555
F2.77
tp932
a(F-112.492732698713
F2.919
tp933
a(F-112.49206514226699
F3.351
tp934
a(F-112.491397506178
F2.8639999999999999
tp935
a(F-112.49072979639701
F2.7880000000000003
tp936
a(F-112.490061938088
F2.7800000000000002
tp937
a(F-112.48939409644601
F2.7589999999999999
tp938
a(F-112.488726198764
F2.798
tp939
a(F-112.48805825086301
F2.766
tp940
a(F-112.487390258551
F2.766
tp941
a(F-112.4867222276
F2.7549999999999999
tp942
a(F-112.486054163734
F2.8010000000000002
tp943
a(F-112.485386072693
F2.964
tp944
a(F-112.484717960121
F2.8300000000000001
tp945
a(F-112.484049831645
F2.7890000000000001
tp946
a(F-112.48338169295999
F2.8090000000000002
tp947
a(F-112.482713549645
F2.7599999999999998
tp948
a(F-112.48204540727799
F2.7999999999999998
tp949
a(F-112.481377271356
F2.802
tp950
a(F-112.48070914734301
F2.8109999999999999
tp951
a(F-112.48004104079099
F2.7869999999999999
tp952
a(F-112.479372957107
F2.7850000000000001
tp953
a(F-112.478705032256
F2.9550000000000001
tp954
a(F-112.478037014151
F3.0179999999999998
tp955
a(F-112.477369035218
F2.9740000000000002
tp956
a(F-112.47670110076
F2.9630000000000001
tp957
a(F-112.47603321608101
F3.0289999999999999
tp958
a(F-112.475365386493
F2.9630000000000001
tp959
a(F-112.47469761723301
F3.0950000000000002
tp960
a(F-112.47402991356201
F3.089
tp961
a(F-112.473362280648
F3.024
tp962
a(F-112.472694723652
F2.9590000000000001
tp963
a(F-112.472027247787
F2.9459999999999997
tp964
a(F-112.47135985816099
F3.1280000000000001
tp965
a(F-112.470692559805
F3.0259999999999998
tp966
a(F-112.470025357936
F3.1390000000000002
tp967
a(F-112.46935825749399
F3.1230000000000002
tp968
a(F-112.468691263534
F2.9740000000000002
tp969
a(F-112.46802438105
F2.9550000000000001
tp970
a(F-112.467357614985
F3.0150000000000001
tp971
a(F-112.466690970344
F3.4670000000000001
tp972
a(F-112.466024452068
F2.9539999999999997
tp973
a(F-112.46535806502
F2.976
tp974
a(F-112.464691814091
F2.9539999999999997
tp975
a(F-112.464025704143
F2.9399999999999999
tp976
a(F-112.463359739911
F2.9390000000000001
tp977
a(F-112.462693926383
F2.9340000000000002
tp978
a(F-112.462028268257
F2.9459999999999997
tp979
a(F-112.461362770284
F2.9510000000000001
tp980
a(F-112.460697437224
F3.3149999999999999
tp981
a(F-112.460032273794
F3.1230000000000002
tp982
a(F-112.45936728467601
F2.9470000000000001
tp983
a(F-112.45870247564601
F3
tp984
a(F-112.45803784925801
F3.0299999999999998
tp985
a(F-112.457373411055
F2.9449999999999998
tp986
a(F-112.456709165753
F2.9500000000000002
tp987
a(F-112.456045117934
F2.9500000000000002
tp988
a(F-112.45538127213401
F2.9729999999999999
tp989
a(F-112.454717632917
F2.9699999999999998
tp990
a(F-112.45405420489
F2.9660000000000002
tp991
a(F-112.453390992506
F2.9689999999999999
tp992
a(F-112.452728000235
F2.9370000000000003
tp993
a(F-112.452065232561
F3.2869999999999999
tp994
a(F-112.45140269391401
F3.2450000000000001
tp995
a(F-112.450740388664
F3.0179999999999998
tp996
a(F-112.450078321371
F2.9489999999999998
tp997
a(F-112.44941649634499
F2.9859999999999998
tp998
a(F-112.448754917957
F2.9619999999999997
tp999
a(F-112.448093590563
F2.9420000000000002
tp1000
a(F-112.447432480114
F3.7090000000000001
tp1001
a(F-112.446771666803
F3.1699999999999999
tp1002
a(F-112.44611111741
F2.9430000000000001
tp1003
a(F-112.44545083619801
F3.6720000000000002
tp1004
a(F-112.444790827449
F2.9260000000000002
tp1005
a(F-112.444131095354
F2.9449999999999998
tp1006
a(F-112.443471644167
F2.9260000000000002
tp1007
a(F-112.442812478156
F2.9329999999999998
tp1008
a(F-112.44215360150601
F2.9350000000000001
tp1009
a(F-112.441495018298
F2.9699999999999998
tp1010
a(F-112.440836732775
F3.0409999999999999
tp1011
a(F-112.44017874902799
F3.1699999999999999
tp1012
a(F-112.439521071207
F3.262
tp1013
a(F-112.438863703422
F2.9329999999999998
tp1014
a(F-112.438206649774
F2.9379999999999997
tp1015
a(F-112.437549914257
F3.5899999999999999
tp1016
a(F-112.436893501106
F2.9340000000000002
tp1017
a(F-112.43623741427901
F2.9510000000000001
tp1018
a(F-112.43558165782299
F2.9769999999999999
tp1019
a(F-112.434926235739
F2.9649999999999999
tp1020
a(F-112.434271152058
F3.1720000000000002
tp1021
a(F-112.43361641073901
F2.976
tp1022
a(F-112.432962015782
F2.992
tp1023
a(F-112.432307971152
F3.0179999999999998
tp1024
a(F-112.431654280793
F3.032
tp1025
a(F-112.43100094863399
F3.6059999999999999
tp1026
a(F-112.430347978626
F2.9550000000000001
tp1027
a(F-112.429695374649
F3.077
tp1028
a(F-112.429043140627
F2.9689999999999999
tp1029
a(F-112.428391280425
F6.5499999999999998
tp1030
a(F-112.427739797934
F2.9619999999999997
tp1031
a(F-112.427088697011
F2.948
tp1032
a(F-112.426437981533
F2.98
tp1033
a(F-112.425787655287
F2.9470000000000001
tp1034
a(F-112.425137722052
F2.9649999999999999
tp1035
a(F-112.42448818578301
F2.9729999999999999
tp1036
a(F-112.42383905022101
F4.8419999999999996
tp1037
a(F-112.42319031918301
F2.9590000000000001
tp1038
a(F-112.422541996419
F2.96
tp1039
a(F-112.421894085714
F3.6099999999999999
tp1040
a(F-112.421246777408
F3.27
tp1041
a(F-112.42059970827199
F3.1400000000000001
tp1042
a(F-112.419953062674
F3.1899999999999999
tp1043
a(F-112.41930684473699
F3.125
tp1044
a(F-112.41866105738001
F3.23
tp1045
a(F-112.418015704729
F3.1259999999999999
tp1046
a(F-112.41737079050201
F3.1120000000000001
tp1047
a(F-112.41672631838399
F3.141
tp1048
a(F-112.41608229209299
F3.1320000000000001
tp1049
a(F-112.415438715276
F3.1189999999999998
tp1050
a(F-112.414795591603
F3.1440000000000001
tp1051
a(F-112.414152924767
F3.2000000000000002
tp1052
a(F-112.413510718382
F3.149
tp1053
a(F-112.412868976062
F3.1349999999999998
tp1054
a(F-112.412227701565
F3.1230000000000002
tp1055
a(F-112.41158689844301
F3.1179999999999999
tp1056
a(F-112.410946570313
F3.133
tp1057
a(F-112.410306720744
F3.1110000000000002
tp1058
a(F-112.40966735335
F3.1200000000000001
tp1059
a(F-112.40902847178
F3.1080000000000001
tp1060
a(F-112.40839007944
F3.1040000000000001
tp1061
a(F-112.407752179979
F3.1349999999999998
tp1062
a(F-112.407114776862
F4.306
tp1063
a(F-112.406477873726
F3.117
tp1064
a(F-112.405841474054
F3.1269999999999998
tp1065
a(F-112.405205581337
F3.1299999999999999
tp1066
a(F-112.404570199093
F3.3970000000000002
tp1067
a(F-112.403935330805
F3.1269999999999998
tp1068
a(F-112.403300979948
F3.798
tp1069
a(F-112.4026671502
F3.101
tp1070
a(F-112.402033845067
F3.1030000000000002
tp1071
a(F-112.401401068209
F3.1139999999999999
tp1072
a(F-112.40076882340099
F3.1099999999999999
tp1073
a(F-112.40013711451699
F3.101
tp1074
a(F-112.39950608649001
F3.294
tp1075
a(F-112.398875471652
F3.3239999999999998
tp1076
a(F-112.398245403808
F3.3149999999999999
tp1077
a(F-112.39761588656999
F3.2919999999999998
tp1078
a(F-112.396986923527
F3.339
tp1079
a(F-112.39635851827001
F3.298
tp1080
a(F-112.395730672634
F3.3180000000000001
tp1081
a(F-112.39510339340001
F3.3380000000000001
tp1082
a(F-112.394476681252
F3.2949999999999999
tp1083
a(F-112.39385053669101
F3.3490000000000002
tp1084
a(F-112.393224959249
F4.2780000000000005
tp1085
a(F-112.392599964059
F3.3199999999999998
tp1086
a(F-112.39197554743301
F3.1120000000000001
tp1087
a(F-112.39135172364399
F3.1349999999999998
tp1088
a(F-112.39072851047401
F3.363
tp1089
a(F-112.390105889661
F3.286
tp1090
a(F-112.389483857614
F3.3130000000000002
tp1091
a(F-112.388862418394
F3.286
tp1092
a(F-112.388241579902
F3.2879999999999998
tp1093
a(F-112.38762134806301
F3.2869999999999999
tp1094
a(F-112.38700166681301
F2.9239999999999999
tp1095
a(F-112.386382662074
F2.9660000000000002
tp1096
a(F-112.385764275189
F2.9459999999999997
tp1097
a(F-112.38514650963
F3.1230000000000002
tp1098
a(F-112.384529368957
F2.9889999999999999
tp1099
a(F-112.38391285673499
F2.9779999999999998
tp1100
a(F-112.383296976541
F2.9550000000000001
tp1101
a(F-112.38268173191
F2.9510000000000001
tp1102
a(F-112.382067126449
F2.9370000000000003
tp1103
a(F-112.38145316371801
F3.371
tp1104
a(F-112.3808398473
F2.9649999999999999
tp1105
a(F-112.38022718077499
F4.1319999999999997
tp1106
a(F-112.37961516760799
F2.9409999999999998
tp1107
a(F-112.379003811627
F2.948
tp1108
a(F-112.37839311630501
F2.9500000000000002
tp1109
a(F-112.377783085237
F2.9329999999999998
tp1110
a(F-112.377173722031
F2.956
tp1111
a(F-112.37656503031501
F2.9459999999999997
tp1112
a(F-112.37595701369
F2.9649999999999999
tp1113
a(F-112.375349675758
F2.9390000000000001
tp1114
a(F-112.37474302013599
F2.9529999999999998
tp1115
a(F-112.374137050524
F2.9300000000000002
tp1116
a(F-112.373531770518
F2.9470000000000001
tp1117
a(F-112.372927183756
F3.0609999999999999
tp1118
a(F-112.37232329389001
F2.948
tp1119
a(F-112.371720104575
F2.9430000000000001
tp1120
a(F-112.37111761946601
F2.9529999999999998
tp1121
a(F-112.37051584224101
F2.9409999999999998
tp1122
a(F-112.369914776586
F2.948
tp1123
a(F-112.36931442615401
F2.9379999999999997
tp1124
a(F-112.368714794673
F2.9279999999999999
tp1125
a(F-112.368115885794
F2.9340000000000002
tp1126
a(F-112.36751770325
F2.9889999999999999
tp1127
a(F-112.366920250736
F2.96
tp1128
a(F-112.366323421101
F3.29
tp1129
a(F-112.36572743418201
F3.3100000000000001
tp1130
a(F-112.365132188438
F3.8410000000000002
tp1131
a(F-112.36453768759699
F3.3199999999999998
tp1132
a(F-112.363943935356
F3.3130000000000002
tp1133
a(F-112.363350935648
F3.2839999999999998
tp1134
a(F-112.36275869217801
F3.4359999999999999
tp1135
a(F-112.36216720870399
F3.3130000000000002
tp1136
a(F-112.361576489051
F3.3079999999999998
tp1137
a(F-112.36098653701499
F3.319
tp1138
a(F-112.36039735641
F3.3559999999999999
tp1139
a(F-112.359808951071
F3.3149999999999999
tp1140
a(F-112.359221324836
F5.1950000000000003
tp1141
a(F-112.358634481797
F3.3559999999999999
tp1142
a(F-112.35804868662601
F3.2959999999999998
tp1143
a(F-112.357463428668
F3.3109999999999999
tp1144
a(F-112.356878965452
F3.3050000000000002
tp1145
a(F-112.356295300886
F3.597
tp1146
a(F-112.35571243885801
F3.399
tp1147
a(F-112.355130383296
F3.294
tp1148
a(F-112.354549138103
F3.294
tp1149
a(F-112.35396870722199
F3.2800000000000002
tp1150
a(F-112.35338909459399
F3.3069999999999999
tp1151
a(F-112.352810304165
F3.294
tp1152
a(F-112.352232339919
F3.2919999999999998
tp1153
a(F-112.35165520582299
F3.2949999999999999
tp1154
a(F-112.351078905861
F3.4729999999999999
tp1155
a(F-112.350503444037
F3.3220000000000001
tp1156
a(F-112.34992882428701
F3.3100000000000001
tp1157
a(F-112.349355050746
F3.351
tp1158
a(F-112.348782127387
F3.2999999999999998
tp1159
a(F-112.34821005826601
F3.3380000000000001
tp1160
a(F-112.347638847383
F3.2959999999999998
tp1161
a(F-112.34706849885799
F3.8719999999999999
tp1162
a(F-112.346499016737
F3.2919999999999998
tp1163
a(F-112.345930279466
F3.2919999999999998
tp1164
a(F-112.34536253736501
F3.2949999999999999
tp1165
a(F-112.344795673703
F3.3130000000000002
tp1166
a(F-112.344229692509
F3.3109999999999999
tp1167
a(F-112.343664598019
F3.5220000000000002
tp1168
a(F-112.343100394299
F4.2050000000000001
tp1169
a(F-112.34253708547099
F3.3300000000000001
tp1170
a(F-112.341974675663
F3.4340000000000002
tp1171
a(F-112.34141316904
F3.351
tp1172
a(F-112.34085256974301
F3.3399999999999999
tp1173
a(F-112.340292881941
F3.3300000000000001
tp1174
a(F-112.33973410981601
F5.444
tp1175
a(F-112.339176257543
F3.319
tp1176
a(F-112.33861932930201
F3.298
tp1177
a(F-112.33806332925499
F3.294
tp1178
a(F-112.337508261693
F3.484
tp1179
a(F-112.336954130797
F3.3140000000000001
tp1180
a(F-112.336400940735
F3.2919999999999998
tp1181
a(F-112.33584869581399
F3.6480000000000001
tp1182
a(F-112.335297400231
F3.2930000000000001
tp1183
a(F-112.334747058198
F3.3410000000000002
tp1184
a(F-112.33419767399501
F3.327
tp1185
a(F-112.333649251884
F3.2970000000000002
tp1186
a(F-112.333101796092
F3.3300000000000001
tp1187
a(F-112.332555310754
F3.351
tp1188
a(F-112.33200980037699
F3.4289999999999998
tp1189
a(F-112.331465269107
F3.3660000000000001
tp1190
a(F-112.33092172123099
F3.3170000000000002
tp1191
a(F-112.330379385527
F3.516
tp1192
a(F-112.329837826381
F3.4950000000000001
tp1193
a(F-112.329297263828
F3.476
tp1194
a(F-112.328757702129
F3.5
tp1195
a(F-112.32821914557201
F3.5649999999999999
tp1196
a(F-112.327681598447
F3.702
tp1197
a(F-112.32714506506299
F3.4359999999999999
tp1198
a(F-112.326609549701
F3.5179999999999998
tp1199
a(F-112.32607505666
F3.4939999999999998
tp1200
a(F-112.325541590231
F3.4119999999999999
tp1201
a(F-112.32500915470099
F3.359
tp1202
a(F-112.32447775436199
F3.3839999999999999
tp1203
a(F-112.32394739349699
F4.1139999999999999
tp1204
a(F-112.323418076382
F3.4039999999999999
tp1205
a(F-112.322889807301
F3.6120000000000001
tp1206
a(F-112.322362590534
F3.4220000000000002
tp1207
a(F-112.321836430342
F3.3780000000000001
tp1208
a(F-112.321311720338
F3.4119999999999999
tp1209
a(F-112.320787701257
F3.407
tp1210
a(F-112.320264751973
F3.6230000000000002
tp1211
a(F-112.31974287670199
F3.3740000000000001
tp1212
a(F-112.319222079711
F3.3279999999999998
tp1213
a(F-112.318702365196
F3.3820000000000001
tp1214
a(F-112.318183737388
F3.3620000000000001
tp1215
a(F-112.317666200419
F3.3820000000000001
tp1216
a(F-112.317149758588
F3.3149999999999999
tp1217
a(F-112.31663441601501
F3.29
tp1218
a(F-112.31612017687
F3.7050000000000001
tp1219
a(F-112.31560704528
F3.3260000000000001
tp1220
a(F-112.315094897403
F3.262
tp1221
a(F-112.31458398834999
F3.3199999999999998
tp1222
a(F-112.314074199071
F3.2730000000000001
tp1223
a(F-112.313565533606
F3.2989999999999999
tp1224
a(F-112.313057996052
F3.9489999999999998
tp1225
a(F-112.312551590426
F3.3050000000000002
tp1226
a(F-112.31204632075099
F3.2909999999999999
tp1227
a(F-112.31154219103
F3.4550000000000001
tp1228
a(F-112.311039205226
F3.3069999999999999
tp1229
a(F-112.31053736724
F3.5070000000000001
tp1230
a(F-112.31003668106
F3.2909999999999999
tp1231
a(F-112.30953715061899
F3.3290000000000002
tp1232
a(F-112.309038779771
F3.2999999999999998
tp1233
a(F-112.30854157234801
F3.2909999999999999
tp1234
a(F-112.308045532184
F3.3239999999999998
tp1235
a(F-112.30755066307201
F3.2789999999999999
tp1236
a(F-112.30705696875199
F3.3290000000000002
tp1237
a(F-112.306564453015
F3.2970000000000002
tp1238
a(F-112.306073119544
F3.2789999999999999
tp1239
a(F-112.305582971988
F3.327
tp1240
a(F-112.305094014006
F3.2599999999999998
tp1241
a(F-112.30460624920801
F3.294
tp1242
a(F-112.304119681166
F3.282
tp1243
a(F-112.303634313402
F3.2429999999999999
tp1244
a(F-112.303150149457
F3.3380000000000001
tp1245
a(F-112.302667192784
F3.274
tp1246
a(F-112.302185446796
F3.3570000000000002
tp1247
a(F-112.30170491488801
F3.3919999999999999
tp1248
a(F-112.301225600347
F3.3220000000000001
tp1249
a(F-112.300747506595
F3.2549999999999999
tp1250
a(F-112.300270636815
F3.266
tp1251
a(F-112.299794994208
F3.2800000000000002
tp1252
a(F-112.299320581911
F3.2789999999999999
tp1253
a(F-112.298847402988
F3.2850000000000001
tp1254
a(F-112.29837546037299
F3.278
tp1255
a(F-112.297904757076
F3.2989999999999999
tp1256
a(F-112.297435295852
F3.294
tp1257
a(F-112.29696707942
F3.2709999999999999
tp1258
a(F-112.296500110426
F3.2749999999999999
tp1259
a(F-112.296034391465
F3.286
tp1260
a(F-112.295569925124
F3.2679999999999998
tp1261
a(F-112.29510671399601
F3.5209999999999999
tp1262
a(F-112.29464476075999
F3.262
tp1263
a(F-112.294184068148
F3.27
tp1264
a(F-112.293724638848
F3.274
tp1265
a(F-112.29326670108
F3.5209999999999999
tp1266
a(F-112.29280980896399
F3.4609999999999999
tp1267
a(F-112.292354188118
F3.4470000000000001
tp1268
a(F-112.291899841043
F3.4750000000000001
tp1269
a(F-112.291446770165
F3.4969999999999999
tp1270
a(F-112.290994977791
F3.5460000000000003
tp1271
a(F-112.290544466127
F3.4540000000000002
tp1272
a(F-112.29009523727299
F3.456
tp1273
a(F-112.289647293201
F5.3079999999999998
tp1274
a(F-112.289200635749
F3.4849999999999999
tp1275
a(F-112.288755266542
F3.448
tp1276
a(F-112.28831118721401
F3.4470000000000001
tp1277
a(F-112.28786839900199
F3.4369999999999998
tp1278
a(F-112.287426903122
F3.6320000000000001
tp1279
a(F-112.286986700979
F3.4870000000000001
tp1280
a(F-112.28654779334801
F3.8220000000000001
tp1281
a(F-112.286110181589
F3.6029999999999998
tp1282
a(F-112.285673867565
F3.5179999999999998
tp1283
a(F-112.285238852598
F3.4470000000000001
tp1284
a(F-112.28480513824699
F3.9670000000000001
tp1285
a(F-112.284372726079
F3.468
tp1286
a(F-112.28394161756
F4.0190000000000001
tp1287
a(F-112.283511814346
F3.4849999999999999
tp1288
a(F-112.283083317902
F5.2370000000000001
tp1289
a(F-112.28265612978301
F3.4820000000000002
tp1290
a(F-112.282230251619
F3.496
tp1291
a(F-112.281805684972
F3.4580000000000002
tp1292
a(F-112.281382430813
F3.4750000000000001
tp1293
a(F-112.28096036241099
F4.3259999999999996
tp1294
a(F-112.28053972364199
F3.286
tp1295
a(F-112.28012055524501
F3.4870000000000001
tp1296
a(F-112.27970260965699
F3.4050000000000002
tp1297
a(F-112.279285765254
F3.2999999999999998
tp1298
a(F-112.27887032446201
F3.3490000000000002
tp1299
a(F-112.278456221897
F3.726
tp1300
a(F-112.278043437798
F11.445
tp1301
a(F-112.277631965438
F3.2850000000000001
tp1302
a(F-112.277221804481
F3.323
tp1303
a(F-112.276812954609
F3.2810000000000001
tp1304
a(F-112.276405415266
F3.2999999999999998
tp1305
a(F-112.275999186741
F3.286
tp1306
a(F-112.275594269914
F3.3239999999999998
tp1307
a(F-112.27519075453399
F3.488
tp1308
a(F-112.274788463577
F3.4790000000000001
tp1309
a(F-112.27438748381
F3.4710000000000001
tp1310
a(F-112.273987814636
F3.472
tp1311
a(F-112.273589455517
F3.4820000000000002
tp1312
a(F-112.273192405415
F3.673
tp1313
a(F-112.27279666344
F3.7429999999999999
tp1314
a(F-112.272402228649
F3.516
tp1315
a(F-112.272009100053
F3.4649999999999999
tp1316
a(F-112.27161727677399
F3.484
tp1317
a(F-112.27122675789499
F3.5369999999999999
tp1318
a(F-112.27083754215199
F3.5329999999999999
tp1319
a(F-112.270449628591
F3.597
tp1320
a(F-112.270063016094
F3.4609999999999999
tp1321
a(F-112.269677703504
F3.5140000000000002
tp1322
a(F-112.269293689618
F3.48
tp1323
a(F-112.268910973187
F3.452
tp1324
a(F-112.268529552911
F3.9449999999999998
tp1325
a(F-112.268149427411
F3.48
tp1326
a(F-112.267770595537
F3.4769999999999999
tp1327
a(F-112.267393055277
F3.4609999999999999
tp1328
a(F-112.267016805434
F3.4660000000000002
tp1329
a(F-112.266641844299
F3.4820000000000002
tp1330
a(F-112.266268170515
F3.4950000000000001
tp1331
a(F-112.26589578255999
F3.4500000000000002
tp1332
a(F-112.26552467897
F3.4729999999999999
tp1333
a(F-112.265154858508
F3.4590000000000001
tp1334
a(F-112.26478632015601
F3.9390000000000001
tp1335
a(F-112.264419063039
F3.5499999999999998
tp1336
a(F-112.264053086207
F3.4990000000000001
tp1337
a(F-112.263688387991
F3.4550000000000001
tp1338
a(F-112.26332496508699
F3.4729999999999999
tp1339
a(F-112.262962810535
F3.4889999999999999
tp1340
a(F-112.262601913027
F3.4630000000000001
tp1341
a(F-112.26224226679101
F3.4790000000000001
tp1342
a(F-112.26188385496199
F3.4649999999999999
tp1343
a(F-112.261527006802
F3.496
tp1344
a(F-112.26117105117299
F3.4740000000000002
tp1345
a(F-112.260816431729
F4.3520000000000003
tp1346
a(F-112.260463076101
F3.4889999999999999
tp1347
a(F-112.26011097851899
F3.4769999999999999
tp1348
a(F-112.259760132945
F3.4790000000000001
tp1349
a(F-112.259410534446
F3.762
tp1350
a(F-112.259062179151
F3.4950000000000001
tp1351
a(F-112.25871506387
F3.4820000000000002
tp1352
a(F-112.258369185861
F3.5569999999999999
tp1353
a(F-112.258024542646
F3.4980000000000002
tp1354
a(F-112.25768113207199
F3.4950000000000001
tp1355
a(F-112.25733895210401
F3.5670000000000002
tp1356
a(F-112.25699800083601
F3.4729999999999999
tp1357
a(F-112.25665827631801
F3.7839999999999998
tp1358
a(F-112.256319776384
F3.5110000000000001
tp1359
a(F-112.255982498463
F3.5019999999999998
tp1360
a(F-112.255646439388
F4.8300000000000001
tp1361
a(F-112.255311595355
F3.8439999999999999
tp1362
a(F-112.254977961934
F3.5
tp1363
a(F-112.254645534283
F4.6760000000000002
tp1364
a(F-112.25431430741
F3.48
tp1365
a(F-112.253984276297
F3.4849999999999999
tp1366
a(F-112.25365543615
F3.4870000000000001
tp1367
a(F-112.25332778230801
F3.6949999999999998
tp1368
a(F-112.253001310484
F3.4729999999999999
tp1369
a(F-112.25267616586299
F3.633
tp1370
a(F-112.25235208246499
F3.633
tp1371
a(F-112.252029175274
F3.6550000000000002
tp1372
a(F-112.251707445009
F3.6310000000000002
tp1373
a(F-112.25138688830199
F3.6419999999999999
tp1374
a(F-112.251067625766
F3.9729999999999999
tp1375
a(F-112.25074936953099
F3.8010000000000002
tp1376
a(F-112.25043232697
F3.629
tp1377
a(F-112.250116364864
F3.8220000000000001
tp1378
a(F-112.24980162720099
F3.851
tp1379
a(F-112.249488045652
F3.8079999999999998
tp1380
a(F-112.24917561748801
F3.8109999999999999
tp1381
a(F-112.24886433959701
F3.8999999999999999
tp1382
a(F-112.248554208
F3.8199999999999998
tp1383
a(F-112.248245217404
F3.8330000000000002
tp1384
a(F-112.247937360942
F4.0179999999999998
tp1385
a(F-112.24763062670399
F3.798
tp1386
a(F-112.247324725837
F3.827
tp1387
a(F-112.247020227059
F3.9169999999999998
tp1388
a(F-112.24671722816601
F3.8730000000000002
tp1389
a(F-112.246414985923
F4.1849999999999996
tp1390
a(F-112.24611385792799
F3.827
tp1391
a(F-112.245813840493
F3.8090000000000002
tp1392
a(F-112.24551492993299
F3.806
tp1393
a(F-112.24521712253799
F10.829000000000001
tp1394
a(F-112.244920414422
F3.9180000000000001
tp1395
a(F-112.244624801809
F3.8359999999999999
tp1396
a(F-112.244330280813
F4.0830000000000002
tp1397
a(F-112.244036707641
F4.1059999999999999
tp1398
a(F-112.243744359901
F4.0720000000000001
tp1399
a(F-112.243453092697
F4.0800000000000001
tp1400
a(F-112.243162902254
F4.0019999999999998
tp1401
a(F-112.242873784908
F4.0010000000000003
tp1402
a(F-112.242585736907
F4.343
tp1403
a(F-112.242298754506
F4.1319999999999997
tp1404
a(F-112.242012833966
F4.0350000000000001
tp1405
a(F-112.241727971483
F4
tp1406
a(F-112.24144416338601
F4.0190000000000001
tp1407
a(F-112.241161561159
F4.5039999999999996
tp1408
a(F-112.24087985282399
F3.9820000000000002
tp1409
a(F-112.240599187482
F4.0030000000000001
tp1410
a(F-112.24031956131
F3.9849999999999999
tp1411
a(F-112.24004097044001
F4.9589999999999996
tp1412
a(F-112.23976341084899
F4.0359999999999996
tp1413
a(F-112.23948687892801
F4.0199999999999996
tp1414
a(F-112.23921137058301
F4.1959999999999997
tp1415
a(F-112.23893688186099
F4.0129999999999999
tp1416
a(F-112.238663481096
F4.2450000000000001
tp1417
a(F-112.238391026599
F4.1829999999999998
tp1418
a(F-112.238119580681
F4.242
tp1419
a(F-112.237849139349
F4.1740000000000004
tp1420
a(F-112.237579714289
F4.1769999999999996
tp1421
a(F-112.237311275949
F4.1630000000000003
tp1422
a(F-112.237043831622
F4.2000000000000002
tp1423
a(F-112.236777376795
F4.1820000000000004
tp1424
a(F-112.236511909086
F4.2119999999999997
tp1425
a(F-112.236247423808
F4.2240000000000002
tp1426
a(F-112.235983917526
F4.2169999999999996
tp1427
a(F-112.235721386327
F4.1790000000000003
tp1428
a(F-112.23545982639099
F4.1689999999999996
tp1429
a(F-112.235199233941
F4.2110000000000003
tp1430
a(F-112.23493960520599
F4.2140000000000004
tp1431
a(F-112.234680936506
F4.1799999999999997
tp1432
a(F-112.234423223889
F4.1829999999999998
tp1433
a(F-112.23416646380799
F4.1980000000000004
tp1434
a(F-112.233910652242
F4.9160000000000004
tp1435
a(F-112.233655785569
F4.2489999999999997
tp1436
a(F-112.233401860052
F4.2930000000000001
tp1437
a(F-112.233148871913
F4.2009999999999996
tp1438
a(F-112.232896817449
F4.1710000000000003
tp1439
a(F-112.232645692909
F4.2030000000000003
tp1440
a(F-112.232395494557
F4.1769999999999996
tp1441
a(F-112.232146218672
F4.3259999999999996
tp1442
a(F-112.23189786154801
F4.1660000000000004
tp1443
a(F-112.231650419456
F4.2530000000000001
tp1444
a(F-112.23140388871199
F4.2590000000000003
tp1445
a(F-112.231158265605
F4.1769999999999996
tp1446
a(F-112.230913546446
F4.1950000000000003
tp1447
a(F-112.23066972754501
F4.2199999999999998
tp1448
a(F-112.23042680523101
F4.165
tp1449
a(F-112.23018477583101
F5.04
tp1450
a(F-112.229943635699
F4.1879999999999997
tp1451
a(F-112.229703381148
F4.1799999999999997
tp1452
a(F-112.229464008536
F4.5359999999999996
tp1453
a(F-112.229225514143
F4.6600000000000001
tp1454
a(F-112.228987744607
F4.4459999999999997
tp1455
a(F-112.228750998892
F4.3440000000000003
tp1456
a(F-112.22851512077401
F4.3659999999999997
tp1457
a(F-112.228280106642
F4.7590000000000003
tp1458
a(F-112.228045952919
F4.3719999999999999
tp1459
a(F-112.227812656027
F4.524
tp1460
a(F-112.227580212402
F4.391
tp1461
a(F-112.227348618506
F4.4059999999999997
tp1462
a(F-112.22711787079599
F4.3490000000000002
tp1463
a(F-112.22688796573701
F4.4470000000000001
tp1464
a(F-112.226658899642
F4.3360000000000003
tp1465
a(F-112.22643066931801
F4.3159999999999998
tp1466
a(F-112.22620327110801
F4.3380000000000001
tp1467
a(F-112.22597670153399
F4.3520000000000003
tp1468
a(F-112.225750957145
F4.3310000000000004
tp1469
a(F-112.22552603437499
F4.3609999999999998
tp1470
a(F-112.22530192981399
F4.3570000000000002
tp1471
a(F-112.22507864001599
F4.3280000000000003
tp1472
a(F-112.224856161544
F4.3380000000000001
tp1473
a(F-112.224634655445
F4.3609999999999998
tp1474
a(F-112.224413788551
F4.3300000000000001
tp1475
a(F-112.224193722701
F4.3840000000000003
tp1476
a(F-112.223974454491
F4.3479999999999999
tp1477
a(F-112.223755980563
F4.3840000000000003
tp1478
a(F-112.22353829751999
F4.3259999999999996
tp1479
a(F-112.223321401864
F4.3319999999999999
tp1480
a(F-112.22310529035801
F4.3710000000000004
tp1481
a(F-112.222889959846
F4.3879999999999999
tp1482
a(F-112.22267540683001
F4.3330000000000002
tp1483
a(F-112.222461627995
F4.4050000000000002
tp1484
a(F-112.222248620054
F4.3499999999999996
tp1485
a(F-112.22203637967
F4.3550000000000004
tp1486
a(F-112.22182490358099
F4.3819999999999997
tp1487
a(F-112.221614188507
F4.3970000000000002
tp1488
a(F-112.22140423120101
F4.3399999999999999
tp1489
a(F-112.221195028376
F4.351
tp1490
a(F-112.22098657685
F4.3680000000000003
tp1491
a(F-112.22077887337601
F4.3959999999999999
tp1492
a(F-112.220571914733
F4.3479999999999999
tp1493
a(F-112.220365697707
F4.3339999999999996
tp1494
a(F-112.220160219121
F4.3609999999999998
tp1495
a(F-112.21995547581
F4.3330000000000002
tp1496
a(F-112.219751464593
F4.335
tp1497
a(F-112.219548182412
F4.3319999999999999
tp1498
a(F-112.219345625926
F4.3259999999999996
tp1499
a(F-112.21914379210899
F4.4740000000000002
tp1500
a(F-112.21894267782901
F4.3360000000000003
tp1501
a(F-112.218742279968
F4.3469999999999995
tp1502
a(F-112.218542595447
F4.3920000000000003
tp1503
a(F-112.21834362117799
F4.4189999999999996
tp1504
a(F-112.21814535407999
F4.5670000000000002
tp1505
a(F-112.217947704317
F4.6890000000000001
tp1506
a(F-112.217750844164
F4.7679999999999998
tp1507
a(F-112.21755468214
F4.6239999999999997
tp1508
a(F-112.21735921523
F4.6790000000000003
tp1509
a(F-112.217164440429
F4.5199999999999996
tp1510
a(F-112.21697035475
F4.5149999999999997
tp1511
a(F-112.216776955173
F4.6050000000000004
tp1512
a(F-112.216584238816
F5.7480000000000002
tp1513
a(F-112.216392202679
F4.5949999999999998
tp1514
a(F-112.216200843826
F4.5049999999999999
tp1515
a(F-112.216010159329
F4.5579999999999998
tp1516
a(F-112.215820146266
F4.5099999999999998
tp1517
a(F-112.215630801749
F4.5519999999999996
tp1518
a(F-112.215442122875
F4.5259999999999998
tp1519
a(F-112.21525410676099
F4.6260000000000003
tp1520
a(F-112.215066750563
F4.5549999999999997
tp1521
a(F-112.214880051398
F4.548
tp1522
a(F-112.214694006435
F4.5060000000000002
tp1523
a(F-112.214508612857
F4.5250000000000004
tp1524
a(F-112.21432386784301
F4.5940000000000003
tp1525
a(F-112.214139768781
F4.5280000000000005
tp1526
a(F-112.213956312476
F4.5600000000000005
tp1527
a(F-112.213773496372
F4.5149999999999997
tp1528
a(F-112.213591317694
F4.5190000000000001
tp1529
a(F-112.21340977369501
F4.569
tp1530
a(F-112.213228861624
F4.5940000000000003
tp1531
a(F-112.21304857876
F4.79
tp1532
a(F-112.212868922396
F4.5129999999999999
tp1533
a(F-112.212689889825
F4.8840000000000003
tp1534
a(F-112.21251158555
F4.5300000000000002
tp1535
a(F-112.212333792111
F4.5620000000000003
tp1536
a(F-112.21215661435301
F4.5069999999999997
tp1537
a(F-112.211980049612
F4.5339999999999998
tp1538
a(F-112.21180409522501
F4.5410000000000004
tp1539
a(F-112.21162874855899
F4.5110000000000001
tp1540
a(F-112.21145400698801
F4.5199999999999996
tp1541
a(F-112.211279867976
F4.5
tp1542
a(F-112.211106328746
F5.431
tp1543
a(F-112.210933386787
F4.5090000000000003
tp1544
a(F-112.210761039511
F4.4980000000000002
tp1545
a(F-112.21058928431999
F4.5359999999999996
tp1546
a(F-112.21041811870199
F4.4989999999999997
tp1547
a(F-112.210247540075
F4.6850000000000005
tp1548
a(F-112.210077545899
F4.4879999999999995
tp1549
a(F-112.209908133631
F4.5179999999999998
tp1550
a(F-112.209739300753
F4.5730000000000004
tp1551
a(F-112.20957104449199
F4.5460000000000003
tp1552
a(F-112.209403362826
F5.8209999999999997
tp1553
a(F-112.209236253019
F4.556
tp1554
a(F-112.20906971255501
F4.5359999999999996
tp1555
a(F-112.20890373891
F4.5129999999999999
tp1556
a(F-112.20873832963299
F4.4930000000000003
tp1557
a(F-112.208573482332
F4.5380000000000003
tp1558
a(F-112.208409194333
F4.5010000000000003
tp1559
a(F-112.20824546324501
F5.117
tp1560
a(F-112.20808228684101
F4.5350000000000001
tp1561
a(F-112.20791966341601
F4.5570000000000004
tp1562
a(F-112.20775754991701
F5.0190000000000001
tp1563
a(F-112.20759601074801
F4.5199999999999996
tp1564
a(F-112.20743512754601
F4.6920000000000002
tp1565
a(F-112.207274694948
F4.7219999999999995
tp1566
a(F-112.2071148041
F4.6669999999999998
tp1567
a(F-112.2069554489
F4.7080000000000002
tp1568
a(F-112.20679663408499
F4.7210000000000001
tp1569
a(F-112.206638359994
F4.7270000000000003
tp1570
a(F-112.206480613667
F4.6799999999999997
tp1571
a(F-112.206323393308
F4.7830000000000004
tp1572
a(F-112.20616669808901
F4.8659999999999997
tp1573
a(F-112.206010524143
F4.6609999999999996
tp1574
a(F-112.205854870563
F4.694
tp1575
a(F-112.20569974085799
F4.6959999999999997
tp1576
a(F-112.20554513458499
F4.6719999999999997
tp1577
a(F-112.205391046119
F4.7190000000000003
tp1578
a(F-112.205237320789
F4.516
tp1579
a(F-112.205084258653
F4.5110000000000001
tp1580
a(F-112.204931885137
F4.6929999999999996
tp1581
a(F-112.2047798401
F4.6859999999999999
tp1582
a(F-112.204628300164
F4.6840000000000002
tp1583
a(F-112.20447726313201
F5.3419999999999996
tp1584
a(F-112.20432672689201
F4.6619999999999999
tp1585
a(F-112.204176689333
F4.8689999999999998
tp1586
a(F-112.204027148371
F4.734
tp1587
a(F-112.203878101885
F4.6840000000000002
tp1588
a(F-112.203729548464
F4.7219999999999995
tp1589
a(F-112.20358148471701
F4.7009999999999996
tp1590
a(F-112.20343390924
F4.7219999999999995
tp1591
a(F-112.203286819997
F4.673
tp1592
a(F-112.203140214862
F4.6740000000000004
tp1593
a(F-112.202994091894
F4.8650000000000002
tp1594
a(F-112.202848448875
F4.6989999999999998
tp1595
a(F-112.202703284002
F4.7130000000000001
tp1596
a(F-112.202558595124
F4.7059999999999995
tp1597
a(F-112.20241438020101
F4.6950000000000003
tp1598
a(F-112.20227063717699
F4.7030000000000003
tp1599
a(F-112.20212736403801
F4.8629999999999995
tp1600
a(F-112.201984558729
F4.8629999999999995
tp1601
a(F-112.20184221916
F4.6779999999999999
tp1602
a(F-112.20170034329
F4.6870000000000003
tp1603
a(F-112.201558929005
F4.7140000000000004
tp1604
a(F-112.201417974218
F4.9030000000000005
tp1605
a(F-112.201277476819
F4.7199999999999998
tp1606
a(F-112.201137434656
F4.6669999999999998
tp1607
a(F-112.200997845565
F4.6779999999999999
tp1608
a(F-112.200858707412
F4.6749999999999998
tp1609
a(F-112.200720018122
F4.6820000000000004
tp1610
a(F-112.20058185226
F4.9359999999999999
tp1611
a(F-112.20044407161799
F4.8499999999999996
tp1612
a(F-112.20030673639501
F6.6890000000000001
tp1613
a(F-112.200169844329
F4.9139999999999997
tp1614
a(F-112.200033393244
F6.4139999999999997
tp1615
a(F-112.19989738158
F4.9139999999999997
tp1616
a(F-112.199761810021
F4.8970000000000002
tp1617
a(F-112.199626682624
F9.1289999999999996
tp1618
a(F-112.199491990558
F4.9210000000000003
tp1619
a(F-112.199357652229
F4.7759999999999998
tp1620
a(F-112.19922389595401
F4.8810000000000002
tp1621
a(F-112.199090493819
F4.9320000000000004
tp1622
a(F-112.19895750643801
F4.9379999999999997
tp1623
a(F-112.198824940129
F4.9790000000000001
tp1624
a(F-112.198692799615
F5.7859999999999996
tp1625
a(F-112.19856108441
F4.9370000000000003
tp1626
a(F-112.19842979305101
F4.8949999999999996
tp1627
a(F-112.198298924114
F4.9809999999999999
tp1628
a(F-112.198168475934
F4.8760000000000003
tp1629
a(F-112.19803844453099
F4.907
tp1630
a(F-112.19790881845999
F4.8929999999999998
tp1631
a(F-112.197779578734
F4.9340000000000002
tp1632
a(F-112.19765079133001
F5.0999999999999996
tp1633
a(F-112.19752239320199
F5.0540000000000003
tp1634
a(F-112.19739439277799
F5.077
tp1635
a(F-112.197266798775
F6.9500000000000002
tp1636
a(F-112.197139653124
F5.5869999999999997
tp1637
a(F-112.197012872662
F5.9009999999999998
tp1638
a(F-112.19688649226001
F5.6260000000000003
tp1639
a(F-112.19676051029199
F5.7320000000000002
tp1640
a(F-112.19663492506299
F5.5720000000000001
tp1641
a(F-112.196509735051
F5.6100000000000003
tp1642
a(F-112.196384938355
F6.1859999999999999
tp1643
a(F-112.196260533866
F6.4480000000000004
tp1644
a(F-112.19613651976501
F5.585
tp1645
a(F-112.19601289443401
F5.5780000000000003
tp1646
a(F-112.19588965633
F5.5640000000000001
tp1647
a(F-112.19576680390701
F5.6710000000000003
tp1648
a(F-112.195644335563
F5.5839999999999996
tp1649
a(F-112.195522249796
F5.5839999999999996
tp1650
a(F-112.19540054503
F5.7549999999999999
tp1651
a(F-112.19527921974699
F5.6219999999999999
tp1652
a(F-112.195158272412
F5.5739999999999998
tp1653
a(F-112.19503770148199
F5.6740000000000004
tp1654
a(F-112.194917505457
F5.5700000000000003
tp1655
a(F-112.19479768281499
F5.5709999999999997
tp1656
a(F-112.194678232046
F5.6029999999999998
tp1657
a(F-112.19455915170499
F5.6820000000000004
tp1658
a(F-112.19444044041499
F5.6230000000000002
tp1659
a(F-112.19432209690601
F5.7709999999999999
tp1660
a(F-112.19420411981
F6.4189999999999996
tp1661
a(F-112.194086507623
F5.7009999999999996
tp1662
a(F-112.193969258335
F5.6020000000000003
tp1663
a(F-112.193852369814
F5.6429999999999998
tp1664
a(F-112.193735839499
F5.7000000000000002
tp1665
a(F-112.19361966815001
F5.5880000000000001
tp1666
a(F-112.193503858639
F5.6289999999999996
tp1667
a(F-112.193388396817
F5.593
tp1668
a(F-112.193273296369
F5.5800000000000001
tp1669
a(F-112.19315854647201
F5.6799999999999997
tp1670
a(F-112.19304414669401
F5.5940000000000003
tp1671
a(F-112.192930097043
F5.6299999999999999
tp1672
a(F-112.192816396697
F5.5649999999999995
tp1673
a(F-112.192703044605
F5.577
tp1674
a(F-112.1925900393
F5.5679999999999996
tp1675
a(F-112.192477379229
F5.6040000000000001
tp1676
a(F-112.192365062801
F5.5529999999999999
tp1677
a(F-112.19225308853601
F5.6459999999999999
tp1678
a(F-112.19214145501699
F5.6150000000000002
tp1679
a(F-112.19203016083
F5.5659999999999998
tp1680
a(F-112.19191920463
F5.5730000000000004
tp1681
a(F-112.191808584783
F5.5679999999999996
tp1682
a(F-112.19169829952
F5.806
tp1683
a(F-112.191588348292
F5.6840000000000002
tp1684
a(F-112.19147873281599
F5.6340000000000003
tp1685
a(F-112.19136944372499
F6.0789999999999997
tp1686
a(F-112.191260486082
F5.6740000000000004
tp1687
a(F-112.191151857425
F5.6399999999999997
tp1688
a(F-112.191043556685
F6.0490000000000004
tp1689
a(F-112.190935582652
F5.5910000000000002
tp1690
a(F-112.190827934106
F5.601
tp1691
a(F-112.19072060970301
F5.9180000000000001
tp1692
a(F-112.190613608136
F5.6040000000000001
tp1693
a(F-112.19050692776
F7.1420000000000003
tp1694
a(F-112.19040056720399
F5.5679999999999996
tp1695
a(F-112.190294525006
F5.6859999999999999
tp1696
a(F-112.190188800874
F5.5739999999999998
tp1697
a(F-112.190083391519
F5.5819999999999999
tp1698
a(F-112.189978296978
F5.6989999999999998
tp1699
a(F-112.189873515922
F6.0570000000000004
tp1700
a(F-112.189769047276
F6.5
tp1701
a(F-112.189664890239
F5.5780000000000003
tp1702
a(F-112.189561043021
F6.0389999999999997
tp1703
a(F-112.18945750527899
F5.617
tp1704
a(F-112.189354275643
F5.6059999999999999
tp1705
a(F-112.189251352955
F5.5919999999999996
tp1706
a(F-112.189148735877
F5.6319999999999997
tp1707
a(F-112.189046423316
F5.7590000000000003
tp1708
a(F-112.188944414033
F5.5919999999999996
tp1709
a(F-112.188842706858
F5.6280000000000001
tp1710
a(F-112.188741300524
F5.6180000000000003
tp1711
a(F-112.18864019402
F6.8550000000000004
tp1712
a(F-112.188539386079
F5.6760000000000002
tp1713
a(F-112.188438875573
F5.7930000000000001
tp1714
a(F-112.188338661313
F5.6669999999999998
tp1715
a(F-112.18823874215801
F5.6799999999999997
tp1716
a(F-112.188139116952
F5.6079999999999997
tp1717
a(F-112.18803978461
F5.6890000000000001
tp1718
a(F-112.18794074387
F5.6260000000000003
tp1719
a(F-112.187841993582
F5.7190000000000003
tp1720
a(F-112.18774353216899
F5.593
tp1721
a(F-112.187645359252
F6.2409999999999997
tp1722
a(F-112.187547473495
F7.4020000000000001
tp1723
a(F-112.18744987381
F5.6129999999999995
tp1724
a(F-112.18735255889899
F5.9640000000000004
tp1725
a(F-112.187255528086
F5.6210000000000004
tp1726
a(F-112.18715878015701
F5.4820000000000002
tp1727
a(F-112.18706231402101
F5.5359999999999996
tp1728
a(F-112.18696612862701
F5.476
tp1729
a(F-112.186870222987
F6.5880000000000001
tp1730
a(F-112.18677459596501
F5.4950000000000001
tp1731
a(F-112.186679246685
F5.4729999999999999
tp1732
a(F-112.186584187233
F5.6669999999999998
tp1733
a(F-112.18648939246501
F5.6719999999999997
tp1734
a(F-112.186394872344
F5.6970000000000001
tp1735
a(F-112.18630062582599
F5.7229999999999999
tp1736
a(F-112.186206651909
F5.7030000000000003
tp1737
a(F-112.18611294469299
F5.5809999999999995
tp1738
a(F-112.18601951193899
F6.1459999999999999
tp1739
a(F-112.18592634871
F5.5019999999999998
tp1740
a(F-112.18583345398
F5.5250000000000004
tp1741
a(F-112.18574082684999
F5.5460000000000003
tp1742
a(F-112.18564847805
F5.7759999999999998
tp1743
a(F-112.18555638411
F5.7679999999999998
tp1744
a(F-112.185464554749
F6.3330000000000002
tp1745
a(F-112.185372988995
F5.7030000000000003
tp1746
a(F-112.185281685885
F6.2949999999999999
tp1747
a(F-112.185190644409
F5.681
tp1748
a(F-112.18509986362
F5.6970000000000001
tp1749
a(F-112.18500933675899
F5.4960000000000004
tp1750
a(F-112.184919072645
F5.5350000000000001
tp1751
a(F-112.184829066175
F6.4470000000000001
tp1752
a(F-112.18473931610001
F5.5490000000000004
tp1753
a(F-112.184649821731
F5.5289999999999999
tp1754
a(F-112.184560581867
F5.5780000000000003
tp1755
a(F-112.184471595443
F5.5899999999999999
tp1756
a(F-112.18438289493101
F6.4459999999999997
tp1757
a(F-112.184294416123
F5.7610000000000001
tp1758
a(F-112.184206188414
F5.673
tp1759
a(F-112.184118210964
F9.0649999999999995
tp1760
a(F-112.184030482975
F5.7300000000000004
tp1761
a(F-112.18394300336401
F5.7140000000000004
tp1762
a(F-112.183855771647
F5.6909999999999998
tp1763
a(F-112.183768786817
F5.9279999999999999
tp1764
a(F-112.183682047925
F5.6779999999999999
tp1765
a(F-112.183595554063
F5.6530000000000005
tp1766
a(F-112.183509304334
F5.6609999999999996
tp1767
a(F-112.18342329782099
F5.6769999999999996
tp1768
a(F-112.18333753364099
F5.7930000000000001
tp1769
a(F-112.18325200771
F5.6899999999999995
tp1770
a(F-112.18316672604701
F5.6850000000000005
tp1771
a(F-112.18308168402
F7.96
tp1772
a(F-112.182996880753
F5.6980000000000004
tp1773
a(F-112.182912315389
F5.6669999999999998
tp1774
a(F-112.182827987048
F5.6920000000000002
tp1775
a(F-112.182743894891
F5.7750000000000004
tp1776
a(F-112.182660041543
F5.673
tp1777
a(F-112.182576418927
F6.1840000000000002
tp1778
a(F-112.182493030172
F5.6790000000000003
tp1779
a(F-112.18240987422099
F5.6680000000000001
tp1780
a(F-112.182326950232
F5.6980000000000004
tp1781
a(F-112.182244257921
F5.827
tp1782
a(F-112.18216179511001
F5.7119999999999997
tp1783
a(F-112.182079561987
F5.71
tp1784
a(F-112.181997557511
F5.7670000000000003
tp1785
a(F-112.18191578017399
F5.734
tp1786
a(F-112.181834230596
F5.8090000000000002
tp1787
a(F-112.181752626012
F5.3760000000000003
tp1788
a(F-112.181671653282
F5.5990000000000002
tp1789
a(F-112.181590781221
F5.5060000000000002
tp1790
a(F-112.181510259486
F5.4329999999999998
tp1791
a(F-112.18142983393
F5.3639999999999999
tp1792
a(F-112.18134964288301
F5.6980000000000004
tp1793
a(F-112.181269659387
F5.5199999999999996
tp1794
a(F-112.181189896617
F6.1210000000000004
tp1795
a(F-112.181110352402
F5.5419999999999998
tp1796
a(F-112.181031028555
F5.7290000000000001
tp1797
a(F-112.180951923084
F5.8040000000000003
tp1798
a(F-112.18087304642
F5.7549999999999999
tp1799
a(F-112.18079437524599
F5.7009999999999996
tp1800
a(F-112.180715926318
F6.0910000000000002
tp1801
a(F-112.18063768604701
F5.6639999999999997
tp1802
a(F-112.180559660743
F5.7599999999999998
tp1803
a(F-112.180481848949
F6.6980000000000004
tp1804
a(F-112.180404250154
F5.7199999999999998
tp1805
a(F-112.180326863614
F5.8010000000000002
tp1806
a(F-112.180249688348
F5.7130000000000001
tp1807
a(F-112.18017272408299
F5.7489999999999997
tp1808
a(F-112.180095969844
F5.7069999999999999
tp1809
a(F-112.18001942491
F5.718
tp1810
a(F-112.179943088532
F5.7050000000000001
tp1811
a(F-112.179866960003
F5.7270000000000003
tp1812
a(F-112.179791038576
F5.7000000000000002
tp1813
a(F-112.17971532367
F5.6790000000000003
tp1814
a(F-112.17963981413899
F5.6929999999999996
tp1815
a(F-112.17956450975799
F5.7389999999999999
tp1816
a(F-112.179489409612
F6.4530000000000003
tp1817
a(F-112.179414512997
F5.702
tp1818
a(F-112.179339819181
F7.2939999999999996
tp1819
a(F-112.179265327526
F5.7270000000000003
tp1820
a(F-112.179191037302
F5.6769999999999996
tp1821
a(F-112.179116946813
F5.7430000000000003
tp1822
a(F-112.179043057375
F5.843
tp1823
a(F-112.178969367286
F5.6859999999999999
tp1824
a(F-112.17889587585999
F5.71
tp1825
a(F-112.178822582404
F5.7510000000000003
tp1826
a(F-112.178749486238
F6.1879999999999997
tp1827
a(F-112.178676586687
F5.766
tp1828
a(F-112.178603883067
F5.6899999999999995
tp1829
a(F-112.178531374719
F5.8090000000000002
tp1830
a(F-112.17845906087101
F5.7610000000000001
tp1831
a(F-112.17838694104501
F5.9420000000000002
tp1832
a(F-112.178315014489
F5.6850000000000005
tp1833
a(F-112.17824328052799
F5.726
tp1834
a(F-112.178171738497
F5.7489999999999997
tp1835
a(F-112.178100381737
F5.7869999999999999
tp1836
a(F-112.17802921471601
F5.7210000000000001
tp1837
a(F-112.17795824480299
F5.7199999999999998
tp1838
a(F-112.17788746397601
F5.758
tp1839
a(F-112.1778168721
F5.6899999999999995
tp1840
a(F-112.177746468447
F5.6859999999999999
tp1841
a(F-112.177676252029
F6.3099999999999996
tp1842
a(F-112.177606222387
F9.0410000000000004
tp1843
a(F-112.1775363789
F5.7199999999999998
tp1844
a(F-112.17746672091801
F5.8799999999999999
tp1845
a(F-112.17739724782101
F5.8170000000000002
tp1846
a(F-112.177327958989
F5.6950000000000003
tp1847
a(F-112.177258853796
F5.7149999999999999
tp1848
a(F-112.177189931627
F5.8959999999999999
tp1849
a(F-112.177121191854
F5.7210000000000001
tp1850
a(F-112.177052633861
F5.7169999999999996
tp1851
a(F-112.176984257062
F5.71
tp1852
a(F-112.176916060328
F5.7329999999999997
tp1853
a(F-112.176848044043
F5.75
tp1854
a(F-112.17678020709501
F5.7130000000000001
tp1855
a(F-112.17671254893899
F5.726
tp1856
a(F-112.17664506894801
F6.3209999999999997
tp1857
a(F-112.17657776652401
F5.7000000000000002
tp1858
a(F-112.17651064107
F5.7069999999999999
tp1859
a(F-112.176443692002
F5.7110000000000003
tp1860
a(F-112.17637691873099
F5.7400000000000002
tp1861
a(F-112.176310320666
F5.6879999999999997
tp1862
a(F-112.176243897231
F5.7359999999999998
tp1863
a(F-112.17617764783
F5.7510000000000003
tp1864
a(F-112.176111571904
F5.8029999999999999
tp1865
a(F-112.17604566887201
F5.7359999999999998
tp1866
a(F-112.17597993835599
F5.7169999999999996
tp1867
a(F-112.175914379197
F5.6909999999999998
tp1868
a(F-112.175848991397
F5.9119999999999999
tp1869
a(F-112.17578377420899
F5.6719999999999997
tp1870
a(F-112.175718727058
F5.7800000000000002
tp1871
a(F-112.175653849399
F5.7219999999999995
tp1872
a(F-112.17558914067
F5.8449999999999998
tp1873
a(F-112.175524600326
F5.6870000000000003
tp1874
a(F-112.175460227786
F6.1360000000000001
tp1875
a(F-112.17539602250601
F5.681
tp1876
a(F-112.17533198394
F5.7000000000000002
tp1877
a(F-112.17526811157499
F5.6820000000000004
tp1878
a(F-112.17520440474701
F5.7009999999999996
tp1879
a(F-112.17514086304701
F5.6870000000000003
tp1880
a(F-112.175077485887
F8.3490000000000002
tp1881
a(F-112.175014272726
F5.726
tp1882
a(F-112.17495122302699
F5.8689999999999998
tp1883
a(F-112.174888336257
F5.7119999999999997
tp1884
a(F-112.17482561188901
F6.4100000000000001
tp1885
a(F-112.174763049391
F5.7539999999999996
tp1886
a(F-112.17470064823701
F5.6790000000000003
tp1887
a(F-112.174638407891
F5.6690000000000005
tp1888
a(F-112.17457632785
F5.7039999999999997
tp1889
a(F-112.174514407587
F5.6870000000000003
tp1890
a(F-112.174452646576
F5.6769999999999996
tp1891
a(F-112.17439104432199
F5.7270000000000003
tp1892
a(F-112.174329600283
F6.2199999999999998
tp1893
a(F-112.174268313951
F5.7759999999999998
tp1894
a(F-112.174207184854
F5.673
tp1895
a(F-112.17414621243501
F5.7140000000000004
tp1896
a(F-112.174085396043
F5.7219999999999995
tp1897
a(F-112.174024735508
F5.7080000000000002
tp1898
a(F-112.173964230161
F5.6740000000000004
tp1899
a(F-112.173903879505
F5.702
tp1900
a(F-112.173843683041
F5.6790000000000003
tp1901
a(F-112.173783640488
F5.6639999999999997
tp1902
a(F-112.173723750921
F5.6639999999999997
tp1903
a(F-112.17366401407401
F5.6619999999999999
tp1904
a(F-112.173604429444
F5.702
tp1905
a(F-112.173544996552
F5.673
tp1906
a(F-112.173485714915
F5.7430000000000003
tp1907
a(F-112.17342658425
F5.8879999999999999
tp1908
a(F-112.17336760366901
F5.7839999999999998
tp1909
a(F-112.1733087729
F6.6139999999999999
tp1910
a(F-112.17325009146199
F5.7359999999999998
tp1911
a(F-112.173191558883
F5.8360000000000003
tp1912
a(F-112.173133174703
F5.7569999999999997
tp1913
a(F-112.173074938422
F5.8979999999999997
tp1914
a(F-112.17301684959401
F6.0030000000000001
tp1915
a(F-112.17295890774
F5.7379999999999995
tp1916
a(F-112.17290111235999
F5.8079999999999998
tp1917
a(F-112.172843463077
F5.7690000000000001
tp1918
a(F-112.172785959376
F6.0069999999999997
tp1919
a(F-112.172728600816
F5.7549999999999999
tp1920
a(F-112.172671386917
F5.726
tp1921
a(F-112.172614317228
F5.7039999999999997
tp1922
a(F-112.17255739130501
F6.1120000000000001
tp1923
a(F-112.172500608664
F5.7699999999999996
tp1924
a(F-112.172443968918
F5.7930000000000001
tp1925
a(F-112.17238747157199
F5.7690000000000001
tp1926
a(F-112.172331116192
F5.7219999999999995
tp1927
a(F-112.17227490233
F5.7229999999999999
tp1928
a(F-112.172218829546
F5.7780000000000005
tp1929
a(F-112.172162897394
F5.7530000000000001
tp1930
a(F-112.172107105439
F5.7300000000000004
tp1931
a(F-112.17205145345
F6.2279999999999998
tp1932
a(F-112.171995940565
F5.9059999999999997
tp1933
a(F-112.17194056657701
F5.899
tp1934
a(F-112.17188533104201
F5.8760000000000003
tp1935
a(F-112.171830233534
F5.9649999999999999
tp1936
a(F-112.17177527349401
F5.8220000000000001
tp1937
a(F-112.171720450755
F5.8920000000000003
tp1938
a(F-112.171665764786
F5.8540000000000001
tp1939
a(F-112.171611215106
F5.827
tp1940
a(F-112.17155680135301
F6.1050000000000004
tp1941
a(F-112.17150252304999
F5.8380000000000001
tp1942
a(F-112.171448221698
F5.6609999999999996
tp1943
a(F-112.171394215635
F5.6699999999999999
tp1944
a(F-112.17134034382001
F5.6909999999999998
tp1945
a(F-112.17128660577799
F5.7190000000000003
tp1946
a(F-112.171233001133
F5.6660000000000004
tp1947
a(F-112.171179529499
F5.9219999999999997
tp1948
a(F-112.17112619043
F5.7050000000000001
tp1949
a(F-112.171073120632
F5.9039999999999999
tp1950
a(F-112.171020042856
F6.0060000000000002
tp1951
a(F-112.170967061179
F5.6399999999999997
tp1952
a(F-112.170914246452
F5.6530000000000005
tp1953
a(F-112.17086156231299
F5.6360000000000001
tp1954
a(F-112.17080900835199
F5.6500000000000004
tp1955
a(F-112.17075658418101
F5.6280000000000001
tp1956
a(F-112.170704289131
F5.6109999999999998
tp1957
a(F-112.170652123365
F5.8220000000000001
tp1958
a(F-112.17060008618
F5.6420000000000003
tp1959
a(F-112.170548177218
F6.0540000000000003
tp1960
a(F-112.170496395874
F5.7030000000000003
tp1961
a(F-112.17044474190899
F5.9829999999999997
tp1962
a(F-112.17039321527599
F5.718
tp1963
a(F-112.17034181530801
F5.8419999999999996
tp1964
a(F-112.170290541623
F5.9539999999999997
tp1965
a(F-112.170239393844
F5.6710000000000003
tp1966
a(F-112.17018837158901
F5.7309999999999999
tp1967
a(F-112.17013747447599
F5.726
tp1968
a(F-112.170086702116
F5.7800000000000002
tp1969
a(F-112.17003605417401
F5.7649999999999997
tp1970
a(F-112.169985530235
F5.6550000000000002
tp1971
a(F-112.169935130071
F5.7350000000000003
tp1972
a(F-112.16988485307201
F5.649
tp1973
a(F-112.16983469897301
F5.6379999999999999
tp1974
a(F-112.169784667415
F6.4939999999999998
tp1975
a(F-112.16973475802899
F6.4199999999999999
tp1976
a(F-112.169684970443
F5.6260000000000003
tp1977
a(F-112.16963530430201
F5.7629999999999999
tp1978
a(F-112.16958575923501
F5.6890000000000001
tp1979
a(F-112.169536334873
F5.8079999999999998
tp1980
a(F-112.16948703107199
F6.0069999999999997
tp1981
a(F-112.16943784704399
F6.0359999999999996
tp1982
a(F-112.169388782648
F5.6719999999999997
tp1983
a(F-112.169339837514
F5.649
tp1984
a(F-112.16929101129401
F5.9980000000000002
tp1985
a(F-112.169242303605
F5.5869999999999997
tp1986
a(F-112.16919371413501
F5.625
tp1987
a(F-112.16914524255201
F6.1420000000000003
tp1988
a(F-112.169096888488
F5.617
tp1989
a(F-112.169048651616
F5.601
tp1990
a(F-112.16900053160499
F5.9950000000000001
tp1991
a(F-112.168952528163
F5.6630000000000003
tp1992
a(F-112.168904640938
F5.6370000000000005
tp1993
a(F-112.168856869593
F5.6050000000000004
tp1994
a(F-112.168809213766
F5.7679999999999998
tp1995
a(F-112.16876167309501
F5.5819999999999999
tp1996
a(F-112.168714247114
F5.6600000000000001
tp1997
a(F-112.16866693562
F5.9669999999999996
tp1998
a(F-112.168619738179
F5.657
tp1999
a(F-112.168572654453
F5.8890000000000002
tp2000
a(F-112.16852568405299
F6.0839999999999996
tp2001
a.