(lp1
(lp2
I0
aI0
aI0
aI1
aI0
aI0
aI1
aI0
aI0
aI1
aI0
aI1
aI0
aF0.74099999999999999
aF20.699999999999999
aI4
aF14.866511754806723
aa(lp3
I0
aI0
aI1
aI0
aI0
aI0
aI1
aI0
aI0
aI1
aI1
aI0
aI0
aF1.1399999999999999
aF42.840000000000003
aI6
aF27.873837437019553
aa(lp4
I0
aI0
aI0
aI1
aI0
aI0
aI1
aI0
aI0
aI1
aI1
aI0
aI0
aF1.1399999999999999
aF42.840000000000003
aI6
aF29.132585023561656
aa(lp5
I0
aI1
aI0
aI0
aI1
aI0
aI0
aI0
aI0
aI1
aI0
aI0
aI1
aF0.90249999999999997
aF36.700000000000003
aI1
aF20.268428516409728
aa(lp6
I0
aI1
aI0
aI0
aI1
aI0
aI0
aI0
aI0
aI1
aI1
aI0
aI0
aF1.0449999999999999
aF40.240000000000002
aI3
aF14.386159818823511
aa(lp7
I0
aI1
aI0
aI0
aI0
aI1
aI0
aI0
aI0
aI1
aI0
aI1
aI0
aF1.1399999999999999
aF42.840000000000003
aI6
aF23.020560026685359
aa(lp8
I0
aI1
aI0
aI0
aI0
aI0
aI1
aI0
aI0
aI1
aI0
aI0
aI1
aF1.0449999999999999
aF40.240000000000002
aI3
aF13.193253301444992
aa(lp9
I0
aI0
aI1
aI0
aI0
aI1
aI0
aI0
aI1
aI0
aI1
aI0
aI0
aF1.0449999999999999
aF40.240000000000002
aI3
aF15.85553041685
aa(lp10
I0
aI1
aI0
aI0
aI1
aI0
aI0
aI0
aI0
aI1
aI1
aI0
aI0
aF0.8075
aF10.9
aI5
aF17.9953192844883
aa(lp11
I0
aI1
aI0
aI0
aI0
aI0
aI1
aI0
aI0
aI1
aI0
aI1
aI0
aF1.0449999999999999
aF32.299999999999997
aI2
aF20.252013408891404
aa(lp12
I1
aI0
aI0
aI1
aI0
aI0
aI1
aI0
aI0
aI1
aI0
aI1
aI0
aF0.74099999999999999
aF20.699999999999999
aI4
aF9.0520166236980941
aa(lp13
I1
aI0
aI1
aI0
aI0
aI0
aI1
aI0
aI0
aI1
aI1
aI0
aI0
aF1.1399999999999999
aF42.840000000000003
aI6
aF15.833392530987014
aa(lp14
I1
aI0
aI0
aI1
aI0
aI0
aI1
aI0
aI0
aI1
aI1
aI0
aI0
aF1.1399999999999999
aF42.840000000000003
aI6
aF14.548334078742878
aa(lp15
I1
aI1
aI0
aI0
aI1
aI0
aI0
aI0
aI0
aI1
aI0
aI0
aI1
aF0.90249999999999997
aF36.700000000000003
aI1
aF11.095377962215512
aa(lp16
I1
aI1
aI0
aI0
aI1
aI0
aI0
aI0
aI0
aI1
aI1
aI0
aI0
aF1.0449999999999999
aF40.240000000000002
aI3
aF9.72004547054261
aa(lp17
I1
aI1
aI0
aI0
aI0
aI1
aI0
aI0
aI0
aI1
aI0
aI1
aI0
aF1.1399999999999999
aF42.840000000000003
aI6
aF13.524125793313505
aa(lp18
I1
aI1
aI0
aI0
aI0
aI0
aI1
aI0
aI0
aI1
aI0
aI0
aI1
aF1.0449999999999999
aF40.240000000000002
aI3
aF9.6732936879751232
aa(lp19
I1
aI0
aI1
aI0
aI0
aI1
aI0
aI0
aI1
aI0
aI1
aI0
aI0
aF1.0449999999999999
aF40.240000000000002
aI3
aF10.371468922329083
aa(lp20
I1
aI1
aI0
aI0
aI1
aI0
aI0
aI0
aI0
aI1
aI1
aI0
aI0
aF0.8075
aF10.9
aI5
aF9.2373442696016212
aa(lp21
I1
aI1
aI0
aI0
aI0
aI0
aI1
aI0
aI0
aI1
aI0
aI1
aI0
aF1.0449999999999999
aF32.299999999999997
aI2
aF12.949780620511085
aa.