(lp1
(lp2
I0
aI0
aI1
aI0
aI0
aI1
aI0
aI0
aI0
aI1
aI0
aI1
aI0
aF1.0763499999999999
aF111
aI12
aF10.081204294455084
aa(lp3
I0
aI0
aI0
aI1
aI0
aI0
aI1
aI0
aI0
aI1
aI1
aI0
aI0
aF0.94999999999999996
aF46.700000000000003
aI0
aF10.171022518162745
aa(lp4
I0
aI1
aI0
aI0
aI0
aI1
aI0
aI0
aI1
aI0
aI0
aI1
aI0
aF1.0763499999999999
aF111
aI12
aF9.126722426230252
aa(lp5
I0
aI0
aI1
aI0
aI0
aI1
aI0
aI0
aI1
aI0
aI1
aI0
aI0
aF0.74099999999999999
aF20.699999999999999
aI4
aF6.5339630591417004
aa(lp6
I0
aI1
aI0
aI0
aI0
aI0
aI1
aI0
aI0
aI1
aI0
aI1
aI0
aF0.74099999999999999
aF20.699999999999999
aI4
aF5.0191284114703913
aa(lp7
I0
aI0
aI1
aI0
aI0
aI0
aI1
aI0
aI0
aI1
aI0
aI1
aI0
aF1.0763499999999999
aF111
aI12
aF9.966137826695407
aa(lp8
I0
aI1
aI0
aI0
aI1
aI0
aI0
aI1
aI0
aI0
aI0
aI1
aI0
aF0.89015
aF37.799999999999997
aI15
aF7.2516567639523455
aa(lp9
I0
aI0
aI0
aI1
aI0
aI0
aI1
aI0
aI0
aI1
aI0
aI1
aI0
aF0.74670000000000003
aF17.899999999999999
aI14
aF5.1837787248913356
aa(lp10
I0
aI0
aI1
aI0
aI0
aI0
aI1
aI0
aI0
aI1
aI1
aI0
aI0
aF0.75049999999999994
aF24.5
aI10
aF4.8641868600809346
aa(lp11
I0
aI1
aI0
aI0
aI1
aI0
aI0
aI0
aI0
aI1
aI1
aI0
aI0
aF1.0763499999999999
aF111
aI12
aF7.4324194268930013
aa.