(lp1
(lp2
I0
aI1
aI0
aI0
aI1
aI0
aI0
aI1
aI0
aI0
aI0
aI0
aI1
aF0.94999999999999996
aF46.700000000000003
aI0
aF9.6718490594942388
aa(lp3
I0
aI0
aI1
aI0
aI0
aI1
aI0
aI0
aI0
aI1
aI1
aI0
aI0
aF1.41455
aF4.8099999999999996
aI11
aF1.5567212477393473
aa(lp4
I0
aI0
aI1
aI0
aI0
aI0
aI1
aI0
aI0
aI1
aI0
aI1
aI0
aF1.1399999999999999
aF42.840000000000003
aI6
aF9.0435956062886866
aa(lp5
I0
aI1
aI0
aI0
aI0
aI1
aI0
aI0
aI1
aI0
aI0
aI0
aI1
aF0.75049999999999994
aF32.700000000000003
aI9
aF6.473997929342536
aa(lp6
I0
aI1
aI0
aI0
aI0
aI1
aI0
aI0
aI0
aI1
aI1
aI0
aI0
aF0.89015
aF37.799999999999997
aI15
aF8.7176989140201631
aa(lp7
I0
aI0
aI1
aI0
aI0
aI1
aI0
aI0
aI0
aI1
aI0
aI1
aI0
aF1.0763499999999999
aF111
aI12
aF10.081204294455084
aa(lp8
I0
aI0
aI1
aI0
aI0
aI1
aI0
aI0
aI0
aI1
aI0
aI0
aI1
aF0.94999999999999996
aF46.700000000000003
aI0
aF9.8588466839905511
aa(lp9
I0
aI1
aI0
aI0
aI1
aI0
aI0
aI0
aI0
aI1
aI0
aI0
aI1
aF0.89015
aF37.799999999999997
aI15
aF7.8469056627372042
aa(lp10
I0
aI1
aI0
aI0
aI0
aI1
aI0
aI0
aI1
aI0
aI0
aI1
aI0
aF1.1399999999999999
aF42.840000000000003
aI6
aF9.3208530903816733
aa(lp11
I0
aI1
aI0
aI0
aI1
aI0
aI0
aI1
aI0
aI0
aI1
aI0
aI0
aF0.75049999999999994
aF24.5
aI10
aF4.6041863935765681
aa(lp12
I1
aI1
aI0
aI0
aI1
aI0
aI0
aI1
aI0
aI0
aI0
aI0
aI1
aF0.94999999999999996
aF46.700000000000003
aI0
aF13.145382459398441
aa(lp13
I1
aI0
aI1
aI0
aI0
aI1
aI0
aI0
aI0
aI1
aI1
aI0
aI0
aF1.41455
aF4.8099999999999996
aI11
aF4.6874890531379849
aa(lp14
I1
aI0
aI1
aI0
aI0
aI0
aI1
aI0
aI0
aI1
aI0
aI1
aI0
aF1.1399999999999999
aF42.840000000000003
aI6
aF14.561504677458275
aa(lp15
I1
aI1
aI0
aI0
aI0
aI1
aI0
aI0
aI1
aI0
aI0
aI0
aI1
aF0.75049999999999994
aF32.700000000000003
aI9
aF8.6084945933002306
aa(lp16
I1
aI1
aI0
aI0
aI0
aI1
aI0
aI0
aI0
aI1
aI1
aI0
aI0
aF0.89015
aF37.799999999999997
aI15
aF12.304453828371971
aa(lp17
I1
aI0
aI1
aI0
aI0
aI1
aI0
aI0
aI0
aI1
aI0
aI1
aI0
aF1.0763499999999999
aF111
aI12
aF9.8749336340831029
aa(lp18
I1
aI0
aI1
aI0
aI0
aI1
aI0
aI0
aI0
aI1
aI0
aI0
aI1
aF0.94999999999999996
aF46.700000000000003
aI0
aF13.37746597267695
aa(lp19
I1
aI1
aI0
aI0
aI1
aI0
aI0
aI0
aI0
aI1
aI0
aI0
aI1
aF0.89015
aF37.799999999999997
aI15
aF12.173966819682486
aa(lp20
I1
aI1
aI0
aI0
aI0
aI1
aI0
aI0
aI1
aI0
aI0
aI1
aI0
aF1.1399999999999999
aF42.840000000000003
aI6
aF13.112240097726371
aa(lp21
I1
aI1
aI0
aI0
aI1
aI0
aI0
aI1
aI0
aI0
aI1
aI0
aI0
aF0.75049999999999994
aF24.5
aI10
aF9.3656313798908002
aa.