(lp1
(lp2
I0
aI0
aI1
aI0
aI0
aI1
aI0
aI0
aI1
aI0
aI0
aI1
aI0
aF0.89015
aF37.799999999999997
aI15
aF7.7573775200000199
aa(lp3
I0
aI1
aI0
aI0
aI1
aI0
aI0
aI0
aI0
aI1
aI1
aI0
aI0
aF0.74099999999999999
aF20.699999999999999
aI4
aF5.8742804720224395
aa(lp4
I0
aI1
aI0
aI0
aI0
aI0
aI1
aI0
aI0
aI1
aI0
aI1
aI0
aF0.75049999999999994
aF32.700000000000003
aI9
aF5.1661868346988324
aa(lp5
I0
aI0
aI1
aI0
aI0
aI0
aI1
aI0
aI0
aI1
aI1
aI0
aI0
aF1.0763499999999999
aF111
aI12
aF4.2753319394280478
aa(lp6
I0
aI0
aI0
aI1
aI0
aI0
aI1
aI0
aI0
aI1
aI1
aI0
aI0
aF0.93384999999999996
aF12.4
aI13
aF0.018978711442234276
aa(lp7
I0
aI0
aI1
aI0
aI0
aI1
aI0
aI0
aI0
aI1
aI0
aI1
aI0
aF1.41455
aF4.8099999999999996
aI11
aF1.4174242371080434
aa(lp8
I0
aI1
aI0
aI0
aI1
aI0
aI0
aI0
aI1
aI0
aI0
aI0
aI1
aF1.0449999999999999
aF40.240000000000002
aI3
aF6.4537724988418184
aa(lp9
I0
aI0
aI1
aI0
aI0
aI1
aI0
aI0
aI0
aI1
aI1
aI0
aI0
aF0.74670000000000003
aF17.899999999999999
aI14
aF5.0299601791075803
aa(lp10
I0
aI1
aI0
aI0
aI1
aI0
aI0
aI0
aI0
aI1
aI0
aI0
aI1
aF0.8075
aF10.9
aI5
aF9.137868036204484
aa(lp11
I0
aI0
aI1
aI0
aI0
aI1
aI0
aI0
aI1
aI0
aI1
aI0
aI0
aF0.93384999999999996
aF12.4
aI13
aF6.4837257020652421
aa.