(lp1
(lp2
I0
aI1
aI0
aI0
aI0
aI0
aI1
aI0
aI0
aI1
aI1
aI0
aI0
aF0.75049999999999994
aF32.700000000000003
aI9
aF6.1831914551074698
aa(lp3
I0
aI1
aI0
aI0
aI0
aI1
aI0
aI0
aI0
aI1
aI1
aI0
aI0
aF0.8075
aF10.9
aI5
aF4.6757823579729045
aa(lp4
I0
aI0
aI1
aI0
aI0
aI1
aI0
aI0
aI0
aI1
aI0
aI1
aI0
aF0.94999999999999996
aF80.099999999999994
aI8
aF8.6545547747283926
aa(lp5
I0
aI1
aI0
aI0
aI1
aI0
aI0
aI1
aI0
aI0
aI0
aI1
aI0
aF0.93384999999999996
aF12.4
aI13
aF11.26809093372629
aa(lp6
I0
aI1
aI0
aI0
aI0
aI1
aI0
aI0
aI1
aI0
aI0
aI0
aI1
aF1.1399999999999999
aF42.840000000000003
aI6
aF9.9302674615087163
aa(lp7
I0
aI0
aI1
aI0
aI0
aI1
aI0
aI0
aI1
aI0
aI0
aI1
aI0
aF0.94999999999999996
aF80.099999999999994
aI8
aF9.2774213508855148
aa(lp8
I0
aI0
aI1
aI0
aI0
aI1
aI0
aI0
aI0
aI1
aI0
aI1
aI0
aF1.0449999999999999
aF40.240000000000002
aI3
aF7.203534714948197
aa(lp9
I0
aI0
aI0
aI1
aI0
aI0
aI1
aI0
aI0
aI1
aI0
aI0
aI1
aF1.083
aF35.899999999999999
aI7
aF3.6559455061130697
aa(lp10
I0
aI1
aI0
aI0
aI0
aI1
aI0
aI0
aI0
aI1
aI1
aI0
aI0
aF1.0763499999999999
aF111
aI12
aF8.4882206348891085
aa(lp11
I0
aI1
aI0
aI0
aI0
aI1
aI0
aI0
aI0
aI1
aI1
aI0
aI0
aF0.89015
aF37.799999999999997
aI15
aF8.7176989140201631
aa(lp12
I1
aI1
aI0
aI0
aI0
aI0
aI1
aI0
aI0
aI1
aI1
aI0
aI0
aF0.75049999999999994
aF32.700000000000003
aI9
aF8.5181706314744474
aa(lp13
I1
aI1
aI0
aI0
aI0
aI1
aI0
aI0
aI0
aI1
aI1
aI0
aI0
aF0.8075
aF10.9
aI5
aF7.8003956057512358
aa(lp14
I1
aI0
aI1
aI0
aI0
aI1
aI0
aI0
aI0
aI1
aI0
aI1
aI0
aF0.94999999999999996
aF80.099999999999994
aI8
aF9.7648415709823482
aa(lp15
I1
aI1
aI0
aI0
aI1
aI0
aI0
aI1
aI0
aI0
aI0
aI1
aI0
aF0.93384999999999996
aF12.4
aI13
aF14.697591687420767
aa(lp16
I1
aI1
aI0
aI0
aI0
aI1
aI0
aI0
aI1
aI0
aI0
aI0
aI1
aF1.1399999999999999
aF42.840000000000003
aI6
aF14.247023102572781
aa(lp17
I1
aI0
aI1
aI0
aI0
aI1
aI0
aI0
aI1
aI0
aI0
aI1
aI0
aF0.94999999999999996
aF80.099999999999994
aI8
aF7.6551369405716905
aa(lp18
I1
aI0
aI1
aI0
aI0
aI1
aI0
aI0
aI0
aI1
aI0
aI1
aI0
aF1.0449999999999999
aF40.240000000000002
aI3
aF10.536062778945103
aa(lp19
I1
aI0
aI0
aI1
aI0
aI0
aI1
aI0
aI0
aI1
aI0
aI0
aI1
aF1.083
aF35.899999999999999
aI7
aF6.0961982776988792
aa(lp20
I1
aI1
aI0
aI0
aI0
aI1
aI0
aI0
aI0
aI1
aI1
aI0
aI0
aF1.0763499999999999
aF111
aI12
aF9.576487308439587
aa(lp21
I1
aI1
aI0
aI0
aI0
aI1
aI0
aI0
aI0
aI1
aI1
aI0
aI0
aF0.89015
aF37.799999999999997
aI15
aF12.304453828371971
aa.