(lp1
(lp2
I0
aI1
aI0
aI0
aI0
aI0
aI1
aI0
aI0
aI1
aI0
aI1
aI0
aF0.94999999999999996
aF46.700000000000003
aI0
aF8.6314088669524018
aa(lp3
I0
aI1
aI0
aI0
aI0
aI0
aI1
aI0
aI0
aI1
aI1
aI0
aI0
aF1.083
aF35.899999999999999
aI7
aF3.711267541813748
aa(lp4
I0
aI0
aI1
aI0
aI0
aI0
aI1
aI0
aI0
aI1
aI0
aI0
aI1
aF1.0763499999999999
aF111
aI12
aF7.1862323440116382
aa(lp5
I0
aI1
aI0
aI0
aI0
aI0
aI1
aI0
aI0
aI1
aI0
aI1
aI0
aF0.74670000000000003
aF17.899999999999999
aI14
aF4.2154314256334624
aa(lp6
I0
aI1
aI0
aI0
aI0
aI1
aI0
aI0
aI0
aI1
aI0
aI1
aI0
aF0.75049999999999994
aF24.5
aI10
aF4.8236577969167413
aa(lp7
I0
aI1
aI0
aI0
aI1
aI0
aI0
aI1
aI0
aI0
aI0
aI0
aI1
aF1.0763499999999999
aF111
aI12
aF6.6702071478581066
aa(lp8
I0
aI1
aI0
aI0
aI1
aI0
aI0
aI1
aI0
aI0
aI0
aI0
aI1
aF0.8075
aF10.9
aI5
aF4.2871082663646449
aa(lp9
I0
aI1
aI0
aI0
aI1
aI0
aI0
aI0
aI1
aI0
aI0
aI0
aI1
aF0.75049999999999994
aF24.5
aI10
aF7.1496770882981151
aa(lp10
I0
aI1
aI0
aI0
aI1
aI0
aI0
aI1
aI0
aI0
aI0
aI1
aI0
aF1.0763499999999999
aF111
aI12
aF7.3722839621908127
aa(lp11
I0
aI1
aI0
aI0
aI1
aI0
aI0
aI1
aI0
aI0
aI1
aI0
aI0
aF0.94999999999999996
aF80.099999999999994
aI8
aF5.1867261387825856
aa(lp12
I1
aI1
aI0
aI0
aI0
aI0
aI1
aI0
aI0
aI1
aI0
aI1
aI0
aF0.94999999999999996
aF46.700000000000003
aI0
aF13.081079905226654
aa(lp13
I1
aI1
aI0
aI0
aI0
aI0
aI1
aI0
aI0
aI1
aI1
aI0
aI0
aF1.083
aF35.899999999999999
aI7
aF6.0041870941992945
aa(lp14
I1
aI0
aI1
aI0
aI0
aI0
aI1
aI0
aI0
aI1
aI0
aI0
aI1
aF1.0763499999999999
aF111
aI12
aF8.6316596541578647
aa(lp15
I1
aI1
aI0
aI0
aI0
aI0
aI1
aI0
aI0
aI1
aI0
aI1
aI0
aF0.74670000000000003
aF17.899999999999999
aI14
aF7.7152710180373001
aa(lp16
I1
aI1
aI0
aI0
aI0
aI1
aI0
aI0
aI0
aI1
aI0
aI1
aI0
aF0.75049999999999994
aF24.5
aI10
aF10.005718480882379
aa(lp17
I1
aI1
aI0
aI0
aI1
aI0
aI0
aI1
aI0
aI0
aI0
aI0
aI1
aF1.0763499999999999
aF111
aI12
aF8.2581827305684286
aa(lp18
I1
aI1
aI0
aI0
aI1
aI0
aI0
aI1
aI0
aI0
aI0
aI0
aI1
aF0.8075
aF10.9
aI5
aF7.4589664044554329
aa(lp19
I1
aI1
aI0
aI0
aI1
aI0
aI0
aI0
aI1
aI0
aI0
aI0
aI1
aF0.75049999999999994
aF24.5
aI10
aF9.6774914082219148
aa(lp20
I1
aI1
aI0
aI0
aI1
aI0
aI0
aI1
aI0
aI0
aI0
aI1
aI0
aF1.0763499999999999
aF111
aI12
aF10.039387870894677
aa(lp21
I1
aI1
aI0
aI0
aI1
aI0
aI0
aI1
aI0
aI0
aI1
aI0
aI0
aF0.94999999999999996
aF80.099999999999994
aI8
aF5.9320689966686375
aa.