(lp1
(lp2
I0
aI1
aI0
aI0
aI0
aI1
aI0
aI0
aI1
aI0
aI0
aI1
aI0
aF0.75049999999999994
aF24.5
aI10
aF3.5735065091135785
aa(lp3
I0
aI1
aI0
aI0
aI1
aI0
aI0
aI0
aI0
aI1
aI1
aI0
aI0
aF0.90249999999999997
aF36.700000000000003
aI1
aF8.2818239932328748
aa(lp4
I0
aI0
aI1
aI0
aI0
aI0
aI1
aI0
aI0
aI1
aI0
aI1
aI0
aF0.94999999999999996
aF80.099999999999994
aI8
aF8.2686627646064483
aa(lp5
I0
aI0
aI0
aI1
aI0
aI0
aI1
aI0
aI0
aI1
aI0
aI0
aI1
aF1.1399999999999999
aF42.840000000000003
aI6
aF10.022998915988941
aa(lp6
I0
aI0
aI1
aI0
aI0
aI0
aI1
aI0
aI0
aI1
aI0
aI1
aI0
aF1.0763499999999999
aF111
aI12
aF9.966137826695407
aa(lp7
I0
aI0
aI1
aI0
aI0
aI1
aI0
aI0
aI1
aI0
aI0
aI1
aI0
aF0.75049999999999994
aF24.5
aI10
aF3.5207859319312695
aa(lp8
I0
aI0
aI1
aI0
aI0
aI1
aI0
aI0
aI0
aI1
aI0
aI0
aI1
aF0.94999999999999996
aF80.099999999999994
aI8
aF4.7702828702417284
aa(lp9
I0
aI1
aI0
aI0
aI0
aI1
aI0
aI0
aI0
aI1
aI0
aI1
aI0
aF0.75049999999999994
aF24.5
aI10
aF4.8236577969167413
aa(lp10
I0
aI1
aI0
aI0
aI0
aI1
aI0
aI0
aI1
aI0
aI1
aI0
aI0
aF0.75049999999999994
aF24.5
aI10
aF4.8695207678911334
aa(lp11
I0
aI1
aI0
aI0
aI1
aI0
aI0
aI0
aI1
aI0
aI0
aI1
aI0
aF1.0449999999999999
aF32.299999999999997
aI2
aF7.6585070133322191
aa.