(lp1
(lp2
I0
aI0
aI1
aI0
aI0
aI1
aI0
aI0
aI0
aI1
aI0
aI0
aI1
aF1.0763499999999999
aF111
aI12
aF9.002118125158697
aa(lp3
I0
aI0
aI0
aI1
aI0
aI0
aI1
aI0
aI0
aI1
aI0
aI0
aI1
aF1.0449999999999999
aF32.299999999999997
aI2
aF7.5899300967678256
aa(lp4
I0
aI1
aI0
aI0
aI1
aI0
aI0
aI1
aI0
aI0
aI0
aI1
aI0
aF1.41455
aF4.8099999999999996
aI11
aF1.5277822664048148
aa(lp5
I0
aI1
aI0
aI0
aI1
aI0
aI0
aI0
aI0
aI1
aI0
aI0
aI1
aF0.93384999999999996
aF12.4
aI13
aF2.2635627112241679
aa(lp6
I0
aI1
aI0
aI0
aI0
aI1
aI0
aI0
aI0
aI1
aI1
aI0
aI0
aF1.0449999999999999
aF32.299999999999997
aI2
aF7.9423296695110572
aa(lp7
I0
aI1
aI0
aI0
aI1
aI0
aI0
aI0
aI1
aI0
aI1
aI0
aI0
aF1.083
aF35.899999999999999
aI7
aF3.8076158698987568
aa(lp8
I0
aI1
aI0
aI0
aI0
aI1
aI0
aI0
aI0
aI1
aI1
aI0
aI0
aF0.93384999999999996
aF12.4
aI13
aF6.2499179334748991
aa(lp9
I0
aI0
aI0
aI1
aI0
aI0
aI1
aI0
aI0
aI1
aI0
aI0
aI1
aF1.0763499999999999
aF111
aI12
aF6.8326822944405921
aa(lp10
I0
aI0
aI0
aI1
aI0
aI0
aI1
aI0
aI0
aI1
aI0
aI0
aI1
aF0.94999999999999996
aF46.700000000000003
aI0
aF9.6214560430024925
aa(lp11
I0
aI1
aI0
aI0
aI0
aI1
aI0
aI0
aI0
aI1
aI1
aI0
aI0
aF0.74099999999999999
aF20.699999999999999
aI4
aF5.8811464590054916
aa(lp12
I1
aI0
aI1
aI0
aI0
aI1
aI0
aI0
aI0
aI1
aI0
aI0
aI1
aF1.0763499999999999
aF111
aI12
aF8.6776608672593998
aa(lp13
I1
aI0
aI0
aI1
aI0
aI0
aI1
aI0
aI0
aI1
aI0
aI0
aI1
aF1.0449999999999999
aF32.299999999999997
aI2
aF12.405642727527587
aa(lp14
I1
aI1
aI0
aI0
aI1
aI0
aI0
aI1
aI0
aI0
aI0
aI1
aI0
aF1.41455
aF4.8099999999999996
aI11
aF4.7759329883788366
aa(lp15
I1
aI1
aI0
aI0
aI1
aI0
aI0
aI0
aI0
aI1
aI0
aI0
aI1
aF0.93384999999999996
aF12.4
aI13
aF10.380391094254602
aa(lp16
I1
aI1
aI0
aI0
aI0
aI1
aI0
aI0
aI0
aI1
aI1
aI0
aI0
aF1.0449999999999999
aF32.299999999999997
aI2
aF12.973973552193131
aa(lp17
I1
aI1
aI0
aI0
aI1
aI0
aI0
aI0
aI1
aI0
aI1
aI0
aI0
aF1.083
aF35.899999999999999
aI7
aF6.0090046140006814
aa(lp18
I1
aI1
aI0
aI0
aI0
aI1
aI0
aI0
aI0
aI1
aI1
aI0
aI0
aF0.93384999999999996
aF12.4
aI13
aF10.808923985478197
aa(lp19
I1
aI0
aI0
aI1
aI0
aI0
aI1
aI0
aI0
aI1
aI0
aI0
aI1
aF1.0763499999999999
aF111
aI12
aF8.5915608412130116
aa(lp20
I1
aI0
aI0
aI1
aI0
aI0
aI1
aI0
aI0
aI1
aI0
aI0
aI1
aF0.94999999999999996
aF46.700000000000003
aI0
aF13.576083073351832
aa(lp21
I1
aI1
aI0
aI0
aI0
aI1
aI0
aI0
aI0
aI1
aI1
aI0
aI0
aF0.74099999999999999
aF20.699999999999999
aI4
aF9.1934688697898483
aa.