(lp1
(lp2
I0
aI1
aI0
aI0
aI0
aI0
aI1
aI0
aI0
aI1
aI1
aI0
aI0
aF1.41455
aF4.8099999999999996
aI11
aF1.7971324199593985
aa(lp3
I0
aI1
aI0
aI0
aI0
aI1
aI0
aI0
aI0
aI1
aI0
aI1
aI0
aF0.75049999999999994
aF32.700000000000003
aI9
aF6.4592041011794183
aa(lp4
I0
aI0
aI1
aI0
aI0
aI1
aI0
aI0
aI1
aI0
aI0
aI0
aI1
aF1.0449999999999999
aF40.240000000000002
aI3
aF6.6499232996165869
aa(lp5
I0
aI1
aI0
aI0
aI1
aI0
aI0
aI0
aI0
aI1
aI1
aI0
aI0
aF0.74099999999999999
aF20.699999999999999
aI4
aF5.8742804720224395
aa(lp6
I0
aI1
aI0
aI0
aI1
aI0
aI0
aI1
aI0
aI0
aI1
aI0
aI0
aF1.1399999999999999
aF42.840000000000003
aI6
aF10.588654716365404
aa(lp7
I0
aI1
aI0
aI0
aI0
aI1
aI0
aI0
aI0
aI1
aI1
aI0
aI0
aF1.0763499999999999
aF111
aI12
aF8.4882206348891085
aa(lp8
I0
aI1
aI0
aI0
aI0
aI1
aI0
aI0
aI0
aI1
aI0
aI1
aI0
aF1.41455
aF4.8099999999999996
aI11
aF1.5644942764275378
aa(lp9
I0
aI1
aI0
aI0
aI0
aI1
aI0
aI0
aI1
aI0
aI1
aI0
aI0
aF0.94999999999999996
aF80.099999999999994
aI8
aF7.9752243252037447
aa(lp10
I0
aI1
aI0
aI0
aI0
aI0
aI1
aI0
aI0
aI1
aI0
aI1
aI0
aF0.90249999999999997
aF36.700000000000003
aI1
aF7.1869198402261869
aa(lp11
I0
aI1
aI0
aI0
aI0
aI1
aI0
aI0
aI1
aI0
aI0
aI1
aI0
aF1.1399999999999999
aF42.840000000000003
aI6
aF9.3208530903816733
aa(lp12
I1
aI1
aI0
aI0
aI0
aI0
aI1
aI0
aI0
aI1
aI1
aI0
aI0
aF1.41455
aF4.8099999999999996
aI11
aF5.2129201053696166
aa(lp13
I1
aI1
aI0
aI0
aI0
aI1
aI0
aI0
aI0
aI1
aI0
aI1
aI0
aF0.75049999999999994
aF32.700000000000003
aI9
aF8.6121798367092826
aa(lp14
I1
aI0
aI1
aI0
aI0
aI1
aI0
aI0
aI1
aI0
aI0
aI0
aI1
aF1.0449999999999999
aF40.240000000000002
aI3
aF9.8101999914717855
aa(lp15
I1
aI1
aI0
aI0
aI1
aI0
aI0
aI0
aI0
aI1
aI1
aI0
aI0
aF0.74099999999999999
aF20.699999999999999
aI4
aF9.3005384421494899
aa(lp16
I1
aI1
aI0
aI0
aI1
aI0
aI0
aI1
aI0
aI0
aI1
aI0
aI0
aF1.1399999999999999
aF42.840000000000003
aI6
aF15.123538288843887
aa(lp17
I1
aI1
aI0
aI0
aI0
aI1
aI0
aI0
aI0
aI1
aI1
aI0
aI0
aF1.0763499999999999
aF111
aI12
aF9.576487308439587
aa(lp18
I1
aI1
aI0
aI0
aI0
aI1
aI0
aI0
aI0
aI1
aI0
aI1
aI0
aF1.41455
aF4.8099999999999996
aI11
aF4.8047643452372464
aa(lp19
I1
aI1
aI0
aI0
aI0
aI1
aI0
aI0
aI1
aI0
aI1
aI0
aI0
aF0.94999999999999996
aF80.099999999999994
aI8
aF9.1286434294409897
aa(lp20
I1
aI1
aI0
aI0
aI0
aI0
aI1
aI0
aI0
aI1
aI0
aI1
aI0
aF0.90249999999999997
aF36.700000000000003
aI1
aF11.530864544934335
aa(lp21
I1
aI1
aI0
aI0
aI0
aI1
aI0
aI0
aI1
aI0
aI0
aI1
aI0
aF1.1399999999999999
aF42.840000000000003
aI6
aF13.112240097726371
aa.