(lp1
(lp2
I0
aI0
aI1
aI0
aI0
aI1
aI0
aI0
aI0
aI1
aI0
aI0
aI1
aF0.94999999999999996
aF46.700000000000003
aI0
aF9.8588466839905511
aa(lp3
I0
aI1
aI0
aI0
aI0
aI1
aI0
aI0
aI0
aI1
aI0
aI0
aI1
aF0.90249999999999997
aF36.700000000000003
aI1
aF8.081827232776206
aa(lp4
I0
aI0
aI1
aI0
aI0
aI0
aI1
aI0
aI0
aI1
aI1
aI0
aI0
aF1.0763499999999999
aF111
aI12
aF4.2753319394280478
aa(lp5
I0
aI0
aI0
aI1
aI0
aI0
aI1
aI0
aI0
aI1
aI1
aI0
aI0
aF1.0449999999999999
aF32.299999999999997
aI2
aF8.0606653114339419
aa(lp6
I0
aI1
aI0
aI0
aI1
aI0
aI0
aI0
aI1
aI0
aI0
aI0
aI1
aF0.75049999999999994
aF32.700000000000003
aI9
aF3.5842488051990928
aa(lp7
I0
aI1
aI0
aI0
aI1
aI0
aI0
aI0
aI0
aI1
aI0
aI0
aI1
aF0.93384999999999996
aF12.4
aI13
aF2.2635627112241679
aa(lp8
I0
aI0
aI0
aI1
aI0
aI0
aI1
aI0
aI0
aI1
aI0
aI1
aI0
aF0.89015
aF37.799999999999997
aI15
aF7.4820705976864987
aa(lp9
I0
aI1
aI0
aI0
aI0
aI1
aI0
aI0
aI1
aI0
aI1
aI0
aI0
aF0.94999999999999996
aF46.700000000000003
aI0
aF10.815827494763818
aa(lp10
I0
aI1
aI0
aI0
aI1
aI0
aI0
aI1
aI0
aI0
aI1
aI0
aI0
aF0.93384999999999996
aF12.4
aI13
aF6.1591696450426809
aa(lp11
I0
aI1
aI0
aI0
aI1
aI0
aI0
aI0
aI1
aI0
aI0
aI0
aI1
aF0.74670000000000003
aF17.899999999999999
aI14
aF4.249586374130021
aa(lp12
I1
aI0
aI1
aI0
aI0
aI1
aI0
aI0
aI0
aI1
aI0
aI0
aI1
aF0.94999999999999996
aF46.700000000000003
aI0
aF13.37746597267695
aa(lp13
I1
aI1
aI0
aI0
aI0
aI1
aI0
aI0
aI0
aI1
aI0
aI0
aI1
aF0.90249999999999997
aF36.700000000000003
aI1
aF11.786260067273528
aa(lp14
I1
aI0
aI1
aI0
aI0
aI0
aI1
aI0
aI0
aI1
aI1
aI0
aI0
aF1.0763499999999999
aF111
aI12
aF9.5573805296505618
aa(lp15
I1
aI0
aI0
aI1
aI0
aI0
aI1
aI0
aI0
aI1
aI1
aI0
aI0
aF1.0449999999999999
aF32.299999999999997
aI2
aF13.153522351310535
aa(lp16
I1
aI1
aI0
aI0
aI1
aI0
aI0
aI0
aI1
aI0
aI0
aI0
aI1
aF0.75049999999999994
aF32.700000000000003
aI9
aF5.2016954621462279
aa(lp17
I1
aI1
aI0
aI0
aI1
aI0
aI0
aI0
aI0
aI1
aI0
aI0
aI1
aF0.93384999999999996
aF12.4
aI13
aF10.380391094254602
aa(lp18
I1
aI0
aI0
aI1
aI0
aI0
aI1
aI0
aI0
aI1
aI0
aI1
aI0
aF0.89015
aF37.799999999999997
aI15
aF12.823772376383188
aa(lp19
I1
aI1
aI0
aI0
aI0
aI1
aI0
aI0
aI1
aI0
aI1
aI0
aI0
aF0.94999999999999996
aF46.700000000000003
aI0
aF14.207782802165012
aa(lp20
I1
aI1
aI0
aI0
aI1
aI0
aI0
aI1
aI0
aI0
aI1
aI0
aI0
aF0.93384999999999996
aF12.4
aI13
aF10.742806637085412
aa(lp21
I1
aI1
aI0
aI0
aI1
aI0
aI0
aI0
aI1
aI0
aI0
aI0
aI1
aF0.74670000000000003
aF17.899999999999999
aI14
aF7.327637847806769
aa.