(lp1
(lp2
I0
aI1
aI0
aI0
aI0
aI1
aI0
aI0
aI1
aI0
aI1
aI0
aI0
aF1.0763499999999999
aF111
aI12
aF7.9610673549111075
aa(lp3
I0
aI1
aI0
aI0
aI0
aI1
aI0
aI0
aI1
aI0
aI0
aI1
aI0
aF1.0449999999999999
aF40.240000000000002
aI3
aF6.2611865388147248
aa(lp4
I0
aI0
aI1
aI0
aI0
aI1
aI0
aI0
aI0
aI1
aI0
aI0
aI1
aF0.75049999999999994
aF32.700000000000003
aI9
aF7.0922894764499818
aa(lp5
I0
aI1
aI0
aI0
aI1
aI0
aI0
aI0
aI0
aI1
aI0
aI1
aI0
aF0.74099999999999999
aF20.699999999999999
aI4
aF5.1248654226062875
aa(lp6
I0
aI0
aI1
aI0
aI0
aI1
aI0
aI0
aI0
aI1
aI0
aI1
aI0
aF0.94999999999999996
aF80.099999999999994
aI8
aF8.6545547747283926
aa(lp7
I0
aI1
aI0
aI0
aI1
aI0
aI0
aI1
aI0
aI0
aI1
aI0
aI0
aF1.0449999999999999
aF40.240000000000002
aI3
aF5.9272471215464853
aa(lp8
I0
aI1
aI0
aI0
aI1
aI0
aI0
aI0
aI1
aI0
aI0
aI1
aI0
aF0.90249999999999997
aF36.700000000000003
aI1
aF6.6209907790692606
aa(lp9
I0
aI1
aI0
aI0
aI0
aI1
aI0
aI0
aI1
aI0
aI1
aI0
aI0
aF1.083
aF35.899999999999999
aI7
aF4.9281520287003806
aa(lp10
I0
aI1
aI0
aI0
aI0
aI0
aI1
aI0
aI0
aI1
aI1
aI0
aI0
aF1.0449999999999999
aF40.240000000000002
aI3
aF6.2696961692956572
aa(lp11
I0
aI0
aI1
aI0
aI0
aI1
aI0
aI0
aI0
aI1
aI1
aI0
aI0
aF0.8075
aF10.9
aI5
aF5.0595057790377318
aa.