(lp1
(lp2
I0
aI0
aI1
aI0
aI0
aI0
aI1
aI0
aI0
aI1
aI0
aI0
aI1
aF0.74099999999999999
aF20.699999999999999
aI4
aF5.8545197740508552
aa(lp3
I0
aI1
aI0
aI0
aI1
aI0
aI0
aI0
aI0
aI1
aI1
aI0
aI0
aF1.41455
aF4.8099999999999996
aI11
aF1.6573195554973914
aa(lp4
I0
aI1
aI0
aI0
aI0
aI1
aI0
aI0
aI1
aI0
aI0
aI1
aI0
aF1.0449999999999999
aF40.240000000000002
aI3
aF6.2611865388147248
aa(lp5
I0
aI1
aI0
aI0
aI0
aI1
aI0
aI0
aI1
aI0
aI1
aI0
aI0
aF0.89015
aF37.799999999999997
aI15
aF8.354404412214711
aa(lp6
I0
aI0
aI1
aI0
aI0
aI1
aI0
aI0
aI1
aI0
aI1
aI0
aI0
aF0.94999999999999996
aF80.099999999999994
aI8
aF8.5960389916980553
aa(lp7
I0
aI1
aI0
aI0
aI0
aI1
aI0
aI0
aI1
aI0
aI1
aI0
aI0
aF1.0449999999999999
aF32.299999999999997
aI2
aF8.75394332872429
aa(lp8
I0
aI1
aI0
aI0
aI1
aI0
aI0
aI0
aI0
aI1
aI1
aI0
aI0
aF0.90249999999999997
aF36.700000000000003
aI1
aF8.2818239932328748
aa(lp9
I0
aI1
aI0
aI0
aI1
aI0
aI0
aI1
aI0
aI0
aI0
aI0
aI1
aF0.75049999999999994
aF24.5
aI10
aF4.2772232485280668
aa(lp10
I0
aI1
aI0
aI0
aI0
aI1
aI0
aI0
aI1
aI0
aI0
aI1
aI0
aF0.89015
aF37.799999999999997
aI15
aF6.7835661001695007
aa(lp11
I0
aI0
aI0
aI1
aI0
aI0
aI1
aI0
aI0
aI1
aI0
aI1
aI0
aF0.93384999999999996
aF12.4
aI13
aF3.7302871240163609
aa.