(lp1
(lp2
I0
aI1
aI0
aI0
aI1
aI0
aI0
aI0
aI0
aI1
aI0
aI1
aI0
aF1.0449999999999999
aF40.240000000000002
aI3
aF5.2827365875143908
aa(lp3
I0
aI1
aI0
aI0
aI1
aI0
aI0
aI0
aI1
aI0
aI0
aI1
aI0
aF1.083
aF35.899999999999999
aI7
aF4.9302606645399836
aa(lp4
I0
aI1
aI0
aI0
aI1
aI0
aI0
aI1
aI0
aI0
aI0
aI0
aI1
aF1.0763499999999999
aF111
aI12
aF6.6702071478581066
aa(lp5
I0
aI1
aI0
aI0
aI1
aI0
aI0
aI0
aI0
aI1
aI0
aI0
aI1
aF1.0763499999999999
aF111
aI12
aF6.6016772830540988
aa(lp6
I0
aI1
aI0
aI0
aI0
aI1
aI0
aI0
aI1
aI0
aI0
aI0
aI1
aF1.0763499999999999
aF111
aI12
aF8.6606380395457894
aa(lp7
I0
aI0
aI0
aI1
aI0
aI0
aI1
aI0
aI0
aI1
aI0
aI1
aI0
aF0.89015
aF37.799999999999997
aI15
aF7.4820705976864987
aa(lp8
I0
aI0
aI1
aI0
aI0
aI1
aI0
aI0
aI1
aI0
aI1
aI0
aI0
aF0.94999999999999996
aF80.099999999999994
aI8
aF8.5960389916980553
aa(lp9
I0
aI0
aI1
aI0
aI0
aI0
aI1
aI0
aI0
aI1
aI0
aI0
aI1
aF1.0449999999999999
aF40.240000000000002
aI3
aF6.503831297611498
aa(lp10
I0
aI1
aI0
aI0
aI1
aI0
aI0
aI0
aI1
aI0
aI0
aI1
aI0
aF0.75049999999999994
aF32.700000000000003
aI9
aF3.7524687492788935
aa(lp11
I0
aI0
aI1
aI0
aI0
aI1
aI0
aI0
aI0
aI1
aI0
aI0
aI1
aF1.0449999999999999
aF32.299999999999997
aI2
aF8.4171484025945258
aa(lp12
I1
aI1
aI0
aI0
aI1
aI0
aI0
aI0
aI0
aI1
aI0
aI1
aI0
aF1.0449999999999999
aF40.240000000000002
aI3
aF8.9630937221645777
aa(lp13
I1
aI1
aI0
aI0
aI1
aI0
aI0
aI0
aI1
aI0
aI0
aI1
aI0
aF1.083
aF35.899999999999999
aI7
aF7.3521603308569219
aa(lp14
I1
aI1
aI0
aI0
aI1
aI0
aI0
aI1
aI0
aI0
aI0
aI0
aI1
aF1.0763499999999999
aF111
aI12
aF8.2581827305684286
aa(lp15
I1
aI1
aI0
aI0
aI1
aI0
aI0
aI0
aI0
aI1
aI0
aI0
aI1
aF1.0763499999999999
aF111
aI12
aF8.0928245458332633
aa(lp16
I1
aI1
aI0
aI0
aI0
aI1
aI0
aI0
aI1
aI0
aI0
aI0
aI1
aF1.0763499999999999
aF111
aI12
aF8.3552122347590956
aa(lp17
I1
aI0
aI0
aI1
aI0
aI0
aI1
aI0
aI0
aI1
aI0
aI1
aI0
aF0.89015
aF37.799999999999997
aI15
aF12.823772376383188
aa(lp18
I1
aI0
aI1
aI0
aI0
aI1
aI0
aI0
aI1
aI0
aI1
aI0
aI0
aF0.94999999999999996
aF80.099999999999994
aI8
aF6.5914641349001526
aa(lp19
I1
aI0
aI1
aI0
aI0
aI0
aI1
aI0
aI0
aI1
aI0
aI0
aI1
aF1.0449999999999999
aF40.240000000000002
aI3
aF9.6943342899641429
aa(lp20
I1
aI1
aI0
aI0
aI1
aI0
aI0
aI0
aI1
aI0
aI0
aI1
aI0
aF0.75049999999999994
aF32.700000000000003
aI9
aF5.718148011202099
aa(lp21
I1
aI0
aI1
aI0
aI0
aI1
aI0
aI0
aI0
aI1
aI0
aI0
aI1
aF1.0449999999999999
aF32.299999999999997
aI2
aF12.32441255418685
aa.