(lp1
(lp2
I0
aI0
aI1
aI0
aI0
aI1
aI0
aI0
aI1
aI0
aI1
aI0
aI0
aF0.74670000000000003
aF17.899999999999999
aI14
aF5.0337470417693053
aa(lp3
I0
aI1
aI0
aI0
aI0
aI0
aI1
aI0
aI0
aI1
aI0
aI0
aI1
aF1.0763499999999999
aF111
aI12
aF8.0238215173604388
aa(lp4
I0
aI1
aI0
aI0
aI1
aI0
aI0
aI0
aI0
aI1
aI1
aI0
aI0
aF0.94999999999999996
aF80.099999999999994
aI8
aF5.146217457566503
aa(lp5
I0
aI1
aI0
aI0
aI1
aI0
aI0
aI1
aI0
aI0
aI0
aI1
aI0
aF0.75049999999999994
aF24.5
aI10
aF7.077395698626133
aa(lp6
I0
aI0
aI0
aI1
aI0
aI0
aI1
aI0
aI0
aI1
aI0
aI1
aI0
aF1.1399999999999999
aF42.840000000000003
aI6
aF11.268262566265507
aa(lp7
I0
aI1
aI0
aI0
aI0
aI1
aI0
aI0
aI0
aI1
aI0
aI0
aI1
aF1.41455
aF4.8099999999999996
aI11
aF1.6191996928166896
aa(lp8
I0
aI1
aI0
aI0
aI1
aI0
aI0
aI1
aI0
aI0
aI0
aI0
aI1
aF0.89015
aF37.799999999999997
aI15
aF7.5044748284070097
aa(lp9
I0
aI1
aI0
aI0
aI1
aI0
aI0
aI1
aI0
aI0
aI0
aI1
aI0
aF1.0763499999999999
aF111
aI12
aF7.3722839621908127
aa(lp10
I0
aI0
aI0
aI1
aI0
aI0
aI1
aI0
aI0
aI1
aI0
aI1
aI0
aF0.75049999999999994
aF32.700000000000003
aI9
aF5.9680490856628312
aa(lp11
I0
aI0
aI1
aI0
aI0
aI0
aI1
aI0
aI0
aI1
aI1
aI0
aI0
aF0.75049999999999994
aF32.700000000000003
aI9
aF6.6445047880668708
aa(lp12
I1
aI0
aI1
aI0
aI0
aI1
aI0
aI0
aI1
aI0
aI1
aI0
aI0
aF0.74670000000000003
aF17.899999999999999
aI14
aF8.0720824007388803
aa(lp13
I1
aI1
aI0
aI0
aI0
aI0
aI1
aI0
aI0
aI1
aI0
aI0
aI1
aF1.0763499999999999
aF111
aI12
aF8.7672944702238489
aa(lp14
I1
aI1
aI0
aI0
aI1
aI0
aI0
aI0
aI0
aI1
aI1
aI0
aI0
aF0.94999999999999996
aF80.099999999999994
aI8
aF8.5285278898675667
aa(lp15
I1
aI1
aI0
aI0
aI1
aI0
aI0
aI1
aI0
aI0
aI0
aI1
aI0
aF0.75049999999999994
aF24.5
aI10
aF9.0119129883119804
aa(lp16
I1
aI0
aI0
aI1
aI0
aI0
aI1
aI0
aI0
aI1
aI0
aI1
aI0
aF1.1399999999999999
aF42.840000000000003
aI6
aF16.493487638720197
aa(lp17
I1
aI1
aI0
aI0
aI0
aI1
aI0
aI0
aI0
aI1
aI0
aI0
aI1
aF1.41455
aF4.8099999999999996
aI11
aF4.581426380118339
aa(lp18
I1
aI1
aI0
aI0
aI1
aI0
aI0
aI1
aI0
aI0
aI0
aI0
aI1
aF0.89015
aF37.799999999999997
aI15
aF11.624096008814886
aa(lp19
I1
aI1
aI0
aI0
aI1
aI0
aI0
aI1
aI0
aI0
aI0
aI1
aI0
aF1.0763499999999999
aF111
aI12
aF10.039387870894677
aa(lp20
I1
aI0
aI0
aI1
aI0
aI0
aI1
aI0
aI0
aI1
aI0
aI1
aI0
aF0.75049999999999994
aF32.700000000000003
aI9
aF8.4400262732355991
aa(lp21
I1
aI0
aI1
aI0
aI0
aI0
aI1
aI0
aI0
aI1
aI1
aI0
aI0
aF0.75049999999999994
aF32.700000000000003
aI9
aF8.800299716336708
aa.