(lp1
(lp2
I0
aI0
aI1
aI0
aI0
aI0
aI1
aI0
aI0
aI1
aI1
aI0
aI0
aF0.89015
aF37.799999999999997
aI15
aF8.5542462745740373
aa(lp3
I0
aI1
aI0
aI0
aI1
aI0
aI0
aI1
aI0
aI0
aI0
aI0
aI1
aF0.94999999999999996
aF80.099999999999994
aI8
aF5.0362416920596713
aa(lp4
I0
aI0
aI0
aI1
aI0
aI0
aI1
aI0
aI0
aI1
aI1
aI0
aI0
aF0.89015
aF37.799999999999997
aI15
aF8.3833059803936418
aa(lp5
I0
aI1
aI0
aI0
aI0
aI0
aI1
aI0
aI0
aI1
aI0
aI1
aI0
aF1.0763499999999999
aF111
aI12
aF8.9156982272969341
aa(lp6
I0
aI0
aI1
aI0
aI0
aI0
aI1
aI0
aI0
aI1
aI0
aI0
aI1
aF0.89015
aF37.799999999999997
aI15
aF7.8896208936129604
aa(lp7
I0
aI1
aI0
aI0
aI1
aI0
aI0
aI0
aI0
aI1
aI0
aI0
aI1
aF0.94999999999999996
aF46.700000000000003
aI0
aF9.6995827930530112
aa(lp8
I0
aI1
aI0
aI0
aI1
aI0
aI0
aI1
aI0
aI0
aI1
aI0
aI0
aF0.75049999999999994
aF24.5
aI10
aF4.6041863935765681
aa(lp9
I0
aI1
aI0
aI0
aI1
aI0
aI0
aI1
aI0
aI0
aI0
aI1
aI0
aF1.0449999999999999
aF32.299999999999997
aI2
aF8.3082190673198451
aa(lp10
I0
aI1
aI0
aI0
aI1
aI0
aI0
aI0
aI0
aI1
aI0
aI0
aI1
aF0.74099999999999999
aF20.699999999999999
aI4
aF5.402882511251474
aa(lp11
I0
aI1
aI0
aI0
aI0
aI1
aI0
aI0
aI0
aI1
aI0
aI1
aI0
aF0.93384999999999996
aF12.4
aI13
aF5.8253055326201988
aa.