(lp1
(lp2
I0
aI1
aI0
aI0
aI1
aI0
aI0
aI0
aI1
aI0
aI0
aI1
aI0
aF0.75049999999999994
aF32.700000000000003
aI9
aF3.7524687492788935
aa(lp3
I0
aI1
aI0
aI0
aI0
aI0
aI1
aI0
aI0
aI1
aI1
aI0
aI0
aF1.0449999999999999
aF40.240000000000002
aI3
aF6.2696961692956572
aa(lp4
I0
aI1
aI0
aI0
aI1
aI0
aI0
aI1
aI0
aI0
aI1
aI0
aI0
aF0.8075
aF10.9
aI5
aF4.5999440737379675
aa(lp5
I0
aI0
aI1
aI0
aI0
aI1
aI0
aI0
aI0
aI1
aI0
aI1
aI0
aF0.74099999999999999
aF20.699999999999999
aI4
aF6.1791569930451677
aa(lp6
I0
aI0
aI1
aI0
aI0
aI1
aI0
aI0
aI0
aI1
aI0
aI0
aI1
aF0.74099999999999999
aF20.699999999999999
aI4
aF5.9019445636797156
aa(lp7
I0
aI0
aI1
aI0
aI0
aI0
aI1
aI0
aI0
aI1
aI0
aI0
aI1
aF0.94999999999999996
aF46.700000000000003
aI0
aF9.6052351149337394
aa(lp8
I0
aI1
aI0
aI0
aI0
aI0
aI1
aI0
aI0
aI1
aI1
aI0
aI0
aF1.0763499999999999
aF111
aI12
aF7.2057044157349672
aa(lp9
I0
aI0
aI0
aI1
aI0
aI0
aI1
aI0
aI0
aI1
aI0
aI0
aI1
aF1.0449999999999999
aF32.299999999999997
aI2
aF7.5899300967678256
aa(lp10
I0
aI1
aI0
aI0
aI0
aI1
aI0
aI0
aI1
aI0
aI1
aI0
aI0
aF0.93384999999999996
aF12.4
aI13
aF6.548976635680364
aa(lp11
I0
aI0
aI1
aI0
aI0
aI1
aI0
aI0
aI1
aI0
aI0
aI0
aI1
aF1.0763499999999999
aF111
aI12
aF8.9191298439672142
aa.