(lp1
(lp2
I0
aI0
aI1
aI0
aI0
aI1
aI0
aI0
aI1
aI0
aI0
aI1
aI0
aF0.75049999999999994
aF32.700000000000003
aI9
aF6.0969765161355705
aa(lp3
I0
aI0
aI0
aI1
aI0
aI0
aI1
aI0
aI0
aI1
aI1
aI0
aI0
aF1.0763499999999999
aF111
aI12
aF7.2524977142426961
aa(lp4
I0
aI1
aI0
aI0
aI0
aI0
aI1
aI0
aI0
aI1
aI0
aI0
aI1
aF0.90249999999999997
aF36.700000000000003
aI1
aF8.0215869995389202
aa(lp5
I0
aI0
aI1
aI0
aI0
aI1
aI0
aI0
aI0
aI1
aI1
aI0
aI0
aF0.94999999999999996
aF46.700000000000003
aI0
aF10.744891781215671
aa(lp6
I0
aI0
aI1
aI0
aI0
aI1
aI0
aI0
aI1
aI0
aI1
aI0
aI0
aF0.74670000000000003
aF17.899999999999999
aI14
aF5.0337470417693053
aa(lp7
I0
aI0
aI0
aI1
aI0
aI0
aI1
aI0
aI0
aI1
aI0
aI1
aI0
aF1.0449999999999999
aF40.240000000000002
aI3
aF5.5479731176346645
aa(lp8
I0
aI1
aI0
aI0
aI1
aI0
aI0
aI0
aI1
aI0
aI0
aI0
aI1
aF0.75049999999999994
aF32.700000000000003
aI9
aF3.5842488051990928
aa(lp9
I0
aI1
aI0
aI0
aI0
aI0
aI1
aI0
aI0
aI1
aI0
aI0
aI1
aF0.93384999999999996
aF12.4
aI13
aF7.2352116174759544
aa(lp10
I0
aI1
aI0
aI0
aI1
aI0
aI0
aI0
aI1
aI0
aI1
aI0
aI0
aF1.083
aF35.899999999999999
aI7
aF3.8076158698987568
aa(lp11
I0
aI1
aI0
aI0
aI0
aI1
aI0
aI0
aI0
aI1
aI1
aI0
aI0
aF0.74099999999999999
aF20.699999999999999
aI4
aF5.8811464590054916
aa.