(lp1
(lp2
I0
aI0
aI1
aI0
aI0
aI1
aI0
aI0
aI1
aI0
aI0
aI1
aI0
aF1.0449999999999999
aF40.240000000000002
aI3
aF6.6286027509175236
aa(lp3
I0
aI0
aI0
aI1
aI0
aI0
aI1
aI0
aI0
aI1
aI0
aI1
aI0
aF0.90249999999999997
aF36.700000000000003
aI1
aF7.0932754005959833
aa(lp4
I0
aI0
aI0
aI1
aI0
aI0
aI1
aI0
aI0
aI1
aI0
aI0
aI1
aF1.0449999999999999
aF32.299999999999997
aI2
aF7.5899300967678256
aa(lp5
I0
aI0
aI0
aI1
aI0
aI0
aI1
aI0
aI0
aI1
aI1
aI0
aI0
aF1.0449999999999999
aF40.240000000000002
aI3
aF6.085043730371309
aa(lp6
I0
aI0
aI1
aI0
aI0
aI0
aI1
aI0
aI0
aI1
aI0
aI0
aI1
aF0.94999999999999996
aF80.099999999999994
aI8
aF7.6605524292497202
aa(lp7
I0
aI0
aI0
aI1
aI0
aI0
aI1
aI0
aI0
aI1
aI0
aI0
aI1
aF1.0449999999999999
aF40.240000000000002
aI3
aF5.6994730817425241
aa(lp8
I0
aI0
aI0
aI1
aI0
aI0
aI1
aI0
aI0
aI1
aI1
aI0
aI0
aF0.8075
aF10.9
aI5
aF9.9491323336606623
aa(lp9
I0
aI1
aI0
aI0
aI0
aI0
aI1
aI0
aI0
aI1
aI0
aI1
aI0
aF1.0763499999999999
aF111
aI12
aF8.9156982272969341
aa(lp10
I0
aI0
aI1
aI0
aI0
aI0
aI1
aI0
aI0
aI1
aI0
aI0
aI1
aF1.083
aF35.899999999999999
aI7
aF5.2258757777227025
aa(lp11
I0
aI1
aI0
aI0
aI1
aI0
aI0
aI1
aI0
aI0
aI0
aI1
aI0
aF0.8075
aF10.9
aI5
aF4.2506434309967114
aa(lp12
I1
aI0
aI1
aI0
aI0
aI1
aI0
aI0
aI1
aI0
aI0
aI1
aI0
aF1.0449999999999999
aF40.240000000000002
aI3
aF9.8730763871127127
aa(lp13
I1
aI0
aI0
aI1
aI0
aI0
aI1
aI0
aI0
aI1
aI0
aI1
aI0
aF0.90249999999999997
aF36.700000000000003
aI1
aF11.405602183801145
aa(lp14
I1
aI0
aI0
aI1
aI0
aI0
aI1
aI0
aI0
aI1
aI0
aI0
aI1
aF1.0449999999999999
aF32.299999999999997
aI2
aF12.405642727527587
aa(lp15
I1
aI0
aI0
aI1
aI0
aI0
aI1
aI0
aI0
aI1
aI1
aI0
aI0
aF1.0449999999999999
aF40.240000000000002
aI3
aF9.9386410502083358
aa(lp16
I1
aI0
aI1
aI0
aI0
aI0
aI1
aI0
aI0
aI1
aI0
aI0
aI1
aF0.94999999999999996
aF80.099999999999994
aI8
aF6.373044370599394
aa(lp17
I1
aI0
aI0
aI1
aI0
aI0
aI1
aI0
aI0
aI1
aI0
aI0
aI1
aF1.0449999999999999
aF40.240000000000002
aI3
aF9.5214271394318271
aa(lp18
I1
aI0
aI0
aI1
aI0
aI0
aI1
aI0
aI0
aI1
aI1
aI0
aI0
aF0.8075
aF10.9
aI5
aF12.245183053782652
aa(lp19
I1
aI1
aI0
aI0
aI0
aI0
aI1
aI0
aI0
aI1
aI0
aI1
aI0
aF1.0763499999999999
aF111
aI12
aF8.1685214084113671
aa(lp20
I1
aI0
aI1
aI0
aI0
aI0
aI1
aI0
aI0
aI1
aI0
aI0
aI1
aF1.083
aF35.899999999999999
aI7
aF7.840088603272978
aa(lp21
I1
aI1
aI0
aI0
aI1
aI0
aI0
aI1
aI0
aI0
aI0
aI1
aI0
aF0.8075
aF10.9
aI5
aF7.5446133766984085
aa.