(lp1
(lp2
I0
aI1
aI0
aI0
aI0
aI1
aI0
aI0
aI1
aI0
aI0
aI0
aI1
aF0.94999999999999996
aF80.099999999999994
aI8
aF7.8152176511881057
aa(lp3
I0
aI0
aI1
aI0
aI0
aI0
aI1
aI0
aI0
aI1
aI1
aI0
aI0
aF0.90249999999999997
aF36.700000000000003
aI1
aF8.6650275207450509
aa(lp4
I0
aI1
aI0
aI0
aI0
aI0
aI1
aI0
aI0
aI1
aI0
aI1
aI0
aF0.75049999999999994
aF24.5
aI10
aF4.7354712480640604
aa(lp5
I0
aI0
aI1
aI0
aI0
aI0
aI1
aI0
aI0
aI1
aI0
aI0
aI1
aF0.8075
aF10.9
aI5
aF4.3868571296299601
aa(lp6
I0
aI1
aI0
aI0
aI1
aI0
aI0
aI1
aI0
aI0
aI1
aI0
aI0
aF0.75049999999999994
aF32.700000000000003
aI9
aF4.6177720369830597
aa(lp7
I0
aI0
aI1
aI0
aI0
aI1
aI0
aI0
aI1
aI0
aI0
aI0
aI1
aF0.74099999999999999
aF20.699999999999999
aI4
aF6.023770262556452
aa(lp8
I0
aI1
aI0
aI0
aI1
aI0
aI0
aI1
aI0
aI0
aI0
aI0
aI1
aF1.41455
aF4.8099999999999996
aI11
aF1.4715555261708999
aa(lp9
I0
aI1
aI0
aI0
aI1
aI0
aI0
aI1
aI0
aI0
aI1
aI0
aI0
aF0.75049999999999994
aF24.5
aI10
aF4.6041863935765681
aa(lp10
I0
aI1
aI0
aI0
aI1
aI0
aI0
aI0
aI1
aI0
aI0
aI0
aI1
aF1.0763499999999999
aF111
aI12
aF8.6640628668465478
aa(lp11
I0
aI0
aI1
aI0
aI0
aI1
aI0
aI0
aI1
aI0
aI1
aI0
aI0
aF1.0763499999999999
aF111
aI12
aF7.9704581892273598
aa.