(lp1
(lp2
I0
aI1
aI0
aI0
aI1
aI0
aI0
aI1
aI0
aI0
aI0
aI1
aI0
aF1.1399999999999999
aF42.840000000000003
aI6
aF8.4779776041497446
aa(lp3
I0
aI0
aI1
aI0
aI0
aI0
aI1
aI0
aI0
aI1
aI1
aI0
aI0
aF1.0763499999999999
aF111
aI12
aF4.2753319394280478
aa(lp4
I0
aI0
aI0
aI1
aI0
aI0
aI1
aI0
aI0
aI1
aI1
aI0
aI0
aF0.8075
aF10.9
aI5
aF9.9491323336606623
aa(lp5
I0
aI1
aI0
aI0
aI0
aI0
aI1
aI0
aI0
aI1
aI0
aI0
aI1
aF0.74670000000000003
aF17.899999999999999
aI14
aF4.271604441018229
aa(lp6
I0
aI0
aI1
aI0
aI0
aI1
aI0
aI0
aI0
aI1
aI0
aI1
aI0
aF1.0449999999999999
aF32.299999999999997
aI2
aF6.5229860798083399
aa(lp7
I0
aI1
aI0
aI0
aI0
aI1
aI0
aI0
aI1
aI0
aI0
aI0
aI1
aF0.93384999999999996
aF12.4
aI13
aF1.294823836299098
aa(lp8
I0
aI1
aI0
aI0
aI0
aI1
aI0
aI0
aI1
aI0
aI1
aI0
aI0
aF1.0449999999999999
aF32.299999999999997
aI2
aF8.75394332872429
aa(lp9
I0
aI1
aI0
aI0
aI0
aI1
aI0
aI0
aI0
aI1
aI0
aI0
aI1
aF1.1399999999999999
aF42.840000000000003
aI6
aF10.137764085751236
aa(lp10
I0
aI0
aI0
aI1
aI0
aI0
aI1
aI0
aI0
aI1
aI0
aI1
aI0
aF0.74670000000000003
aF17.899999999999999
aI14
aF5.1837787248913356
aa(lp11
I0
aI1
aI0
aI0
aI0
aI0
aI1
aI0
aI0
aI1
aI0
aI1
aI0
aF1.0763499999999999
aF111
aI12
aF8.9156982272969341
aa(lp12
I1
aI1
aI0
aI0
aI1
aI0
aI0
aI1
aI0
aI0
aI0
aI1
aI0
aF1.1399999999999999
aF42.840000000000003
aI6
aF13.683990166504174
aa(lp13
I1
aI0
aI1
aI0
aI0
aI0
aI1
aI0
aI0
aI1
aI1
aI0
aI0
aF1.0763499999999999
aF111
aI12
aF9.5573805296505618
aa(lp14
I1
aI0
aI0
aI1
aI0
aI0
aI1
aI0
aI0
aI1
aI1
aI0
aI0
aF0.8075
aF10.9
aI5
aF12.245183053782652
aa(lp15
I1
aI1
aI0
aI0
aI0
aI0
aI1
aI0
aI0
aI1
aI0
aI0
aI1
aF0.74670000000000003
aF17.899999999999999
aI14
aF7.4939812364606135
aa(lp16
I1
aI0
aI1
aI0
aI0
aI1
aI0
aI0
aI0
aI1
aI0
aI1
aI0
aF1.0449999999999999
aF32.299999999999997
aI2
aF11.485280733955751
aa(lp17
I1
aI1
aI0
aI0
aI0
aI1
aI0
aI0
aI1
aI0
aI0
aI0
aI1
aF0.93384999999999996
aF12.4
aI13
aF10.035604894863791
aa(lp18
I1
aI1
aI0
aI0
aI0
aI1
aI0
aI0
aI1
aI0
aI1
aI0
aI0
aF1.0449999999999999
aF32.299999999999997
aI2
aF12.690572347703824
aa(lp19
I1
aI1
aI0
aI0
aI0
aI1
aI0
aI0
aI0
aI1
aI0
aI0
aI1
aF1.1399999999999999
aF42.840000000000003
aI6
aF14.37917978338748
aa(lp20
I1
aI0
aI0
aI1
aI0
aI0
aI1
aI0
aI0
aI1
aI0
aI1
aI0
aF0.74670000000000003
aF17.899999999999999
aI14
aF9.2895190552949565
aa(lp21
I1
aI1
aI0
aI0
aI0
aI0
aI1
aI0
aI0
aI1
aI0
aI1
aI0
aF1.0763499999999999
aF111
aI12
aF8.1685214084113671
aa.