(lp1
(lp2
I0
aI1
aI0
aI0
aI1
aI0
aI0
aI0
aI1
aI0
aI0
aI0
aI1
aF0.89015
aF37.799999999999997
aI15
aF7.468296843259262
aa(lp3
I0
aI1
aI0
aI0
aI0
aI1
aI0
aI0
aI1
aI0
aI1
aI0
aI0
aF0.8075
aF10.9
aI5
aF4.8849947311974402
aa(lp4
I0
aI0
aI1
aI0
aI0
aI0
aI1
aI0
aI0
aI1
aI1
aI0
aI0
aF0.93384999999999996
aF12.4
aI13
aF6.7998746608418408
aa(lp5
I0
aI1
aI0
aI0
aI0
aI1
aI0
aI0
aI1
aI0
aI1
aI0
aI0
aF1.1399999999999999
aF42.840000000000003
aI6
aF10.933489019465107
aa(lp6
I0
aI0
aI1
aI0
aI0
aI1
aI0
aI0
aI0
aI1
aI0
aI1
aI0
aF1.0449999999999999
aF32.299999999999997
aI2
aF6.5229860798083399
aa(lp7
I0
aI0
aI1
aI0
aI0
aI1
aI0
aI0
aI1
aI0
aI0
aI1
aI0
aF1.0449999999999999
aF32.299999999999997
aI2
aF7.901175748507951
aa(lp8
I0
aI1
aI0
aI0
aI1
aI0
aI0
aI0
aI1
aI0
aI0
aI0
aI1
aF1.083
aF35.899999999999999
aI7
aF4.806012570238555
aa(lp9
I0
aI1
aI0
aI0
aI0
aI1
aI0
aI0
aI1
aI0
aI0
aI0
aI1
aF0.89015
aF37.799999999999997
aI15
aF8.2303117788665627
aa(lp10
I0
aI1
aI0
aI0
aI1
aI0
aI0
aI1
aI0
aI0
aI0
aI0
aI1
aF0.93384999999999996
aF12.4
aI13
aF6.0876039210626125
aa(lp11
I0
aI0
aI0
aI1
aI0
aI0
aI1
aI0
aI0
aI1
aI0
aI1
aI0
aF1.0763499999999999
aF111
aI12
aF8.7436683036553298
aa.