(lp1
(lp2
I0
aI1
aI0
aI0
aI0
aI1
aI0
aI0
aI0
aI1
aI0
aI1
aI0
aF0.94999999999999996
aF80.099999999999994
aI8
aF7.8534596877072804
aa(lp3
I0
aI0
aI1
aI0
aI0
aI0
aI1
aI0
aI0
aI1
aI0
aI0
aI1
aF1.1399999999999999
aF42.840000000000003
aI6
aF10.029858312492507
aa(lp4
I0
aI1
aI0
aI0
aI0
aI1
aI0
aI0
aI0
aI1
aI1
aI0
aI0
aF0.93384999999999996
aF12.4
aI13
aF6.2499179334748991
aa(lp5
I0
aI0
aI1
aI0
aI0
aI1
aI0
aI0
aI1
aI0
aI0
aI1
aI0
aF1.41455
aF4.8099999999999996
aI11
aF1.322838224953147
aa(lp6
I0
aI1
aI0
aI0
aI0
aI1
aI0
aI0
aI1
aI0
aI0
aI0
aI1
aF0.74099999999999999
aF20.699999999999999
aI4
aF5.7501173679692075
aa(lp7
I0
aI1
aI0
aI0
aI1
aI0
aI0
aI0
aI1
aI0
aI0
aI1
aI0
aF1.0763499999999999
aF111
aI12
aF9.6366438863032435
aa(lp8
I0
aI0
aI1
aI0
aI0
aI1
aI0
aI0
aI1
aI0
aI1
aI0
aI0
aF1.0449999999999999
aF32.299999999999997
aI2
aF8.7851158826533187
aa(lp9
I0
aI1
aI0
aI0
aI0
aI1
aI0
aI0
aI1
aI0
aI0
aI0
aI1
aF1.0763499999999999
aF111
aI12
aF8.6606380395457894
aa(lp10
I0
aI1
aI0
aI0
aI1
aI0
aI0
aI0
aI0
aI1
aI1
aI0
aI0
aF1.0763499999999999
aF111
aI12
aF7.4324194268930013
aa(lp11
I0
aI0
aI1
aI0
aI0
aI1
aI0
aI0
aI0
aI1
aI0
aI0
aI1
aF1.0763499999999999
aF111
aI12
aF9.002118125158697
aa(lp12
I1
aI1
aI0
aI0
aI0
aI1
aI0
aI0
aI0
aI1
aI0
aI1
aI0
aF0.94999999999999996
aF80.099999999999994
aI8
aF9.1354893964443793
aa(lp13
I1
aI0
aI1
aI0
aI0
aI0
aI1
aI0
aI0
aI1
aI0
aI0
aI1
aF1.1399999999999999
aF42.840000000000003
aI6
aF13.5178411604702
aa(lp14
I1
aI1
aI0
aI0
aI0
aI1
aI0
aI0
aI0
aI1
aI1
aI0
aI0
aF0.93384999999999996
aF12.4
aI13
aF10.808923985478197
aa(lp15
I1
aI0
aI1
aI0
aI0
aI1
aI0
aI0
aI1
aI0
aI0
aI1
aI0
aF1.41455
aF4.8099999999999996
aI11
aF4.3539447106603708
aa(lp16
I1
aI1
aI0
aI0
aI0
aI1
aI0
aI0
aI1
aI0
aI0
aI0
aI1
aF0.74099999999999999
aF20.699999999999999
aI4
aF8.6609770506032557
aa(lp17
I1
aI1
aI0
aI0
aI1
aI0
aI0
aI0
aI1
aI0
aI0
aI1
aI0
aF1.0763499999999999
aF111
aI12
aF12.364837972387692
aa(lp18
I1
aI0
aI1
aI0
aI0
aI1
aI0
aI0
aI1
aI0
aI1
aI0
aI0
aF1.0449999999999999
aF32.299999999999997
aI2
aF12.615917148132137
aa(lp19
I1
aI1
aI0
aI0
aI0
aI1
aI0
aI0
aI1
aI0
aI0
aI0
aI1
aF1.0763499999999999
aF111
aI12
aF8.3552122347590956
aa(lp20
I1
aI1
aI0
aI0
aI1
aI0
aI0
aI0
aI0
aI1
aI1
aI0
aI0
aF1.0763499999999999
aF111
aI12
aF9.3297674452440518
aa(lp21
I1
aI0
aI1
aI0
aI0
aI1
aI0
aI0
aI0
aI1
aI0
aI0
aI1
aF1.0763499999999999
aF111
aI12
aF8.6776608672593998
aa.