(lp1
(lp2
I0
aI1
aI0
aI0
aI0
aI1
aI0
aI0
aI0
aI1
aI1
aI0
aI0
aF0.74670000000000003
aF17.899999999999999
aI14
aF6.0538417201720822
aa(lp3
I0
aI1
aI0
aI0
aI0
aI0
aI1
aI0
aI0
aI1
aI1
aI0
aI0
aF1.0449999999999999
aF32.299999999999997
aI2
aF7.8556734938569672
aa(lp4
I0
aI0
aI1
aI0
aI0
aI0
aI1
aI0
aI0
aI1
aI0
aI0
aI1
aF0.94999999999999996
aF46.700000000000003
aI0
aF9.6052351149337394
aa(lp5
I0
aI1
aI0
aI0
aI0
aI0
aI1
aI0
aI0
aI1
aI0
aI0
aI1
aF0.74099999999999999
aF20.699999999999999
aI4
aF5.3794143673798125
aa(lp6
I0
aI1
aI0
aI0
aI1
aI0
aI0
aI0
aI1
aI0
aI1
aI0
aI0
aF0.93384999999999996
aF12.4
aI13
aF6.5860492079366564
aa(lp7
I0
aI1
aI0
aI0
aI0
aI1
aI0
aI0
aI0
aI1
aI0
aI0
aI1
aF1.083
aF35.899999999999999
aI7
aF3.7442737828048003
aa(lp8
I0
aI1
aI0
aI0
aI0
aI1
aI0
aI0
aI0
aI1
aI0
aI0
aI1
aF0.74099999999999999
aF20.699999999999999
aI4
aF5.436458597583405
aa(lp9
I0
aI0
aI0
aI1
aI0
aI0
aI1
aI0
aI0
aI1
aI0
aI1
aI0
aF0.93384999999999996
aF12.4
aI13
aF3.7302871240163609
aa(lp10
I0
aI0
aI0
aI1
aI0
aI0
aI1
aI0
aI0
aI1
aI1
aI0
aI0
aF0.89015
aF37.799999999999997
aI15
aF8.3833059803936418
aa(lp11
I0
aI1
aI0
aI0
aI0
aI1
aI0
aI0
aI0
aI1
aI1
aI0
aI0
aF1.0763499999999999
aF111
aI12
aF8.4882206348891085
aa.