(lp1
(lp2
I0
aI0
aI1
aI0
aI0
aI0
aI1
aI0
aI0
aI1
aI1
aI0
aI0
aF0.75049999999999994
aF32.700000000000003
aI9
aF6.6445047880668708
aa(lp3
I0
aI0
aI1
aI0
aI0
aI1
aI0
aI0
aI0
aI1
aI1
aI0
aI0
aF0.93384999999999996
aF12.4
aI13
aF6.7683402847094571
aa(lp4
I0
aI0
aI1
aI0
aI0
aI1
aI0
aI0
aI0
aI1
aI0
aI0
aI1
aF1.0763499999999999
aF111
aI12
aF9.002118125158697
aa(lp5
I0
aI1
aI0
aI0
aI1
aI0
aI0
aI0
aI0
aI1
aI0
aI0
aI1
aF0.75049999999999994
aF32.700000000000003
aI9
aF4.2392154921976681
aa(lp6
I0
aI1
aI0
aI0
aI0
aI0
aI1
aI0
aI0
aI1
aI0
aI1
aI0
aF1.0763499999999999
aF111
aI12
aF8.9156982272969341
aa(lp7
I0
aI1
aI0
aI0
aI1
aI0
aI0
aI0
aI0
aI1
aI0
aI0
aI1
aF0.8075
aF10.9
aI5
aF9.137868036204484
aa(lp8
I0
aI1
aI0
aI0
aI1
aI0
aI0
aI1
aI0
aI0
aI0
aI0
aI1
aF1.083
aF35.899999999999999
aI7
aF3.5983198920931692
aa(lp9
I0
aI0
aI1
aI0
aI0
aI1
aI0
aI0
aI0
aI1
aI0
aI1
aI0
aF0.93384999999999996
aF12.4
aI13
aF5.6184810648060717
aa(lp10
I0
aI1
aI0
aI0
aI0
aI0
aI1
aI0
aI0
aI1
aI1
aI0
aI0
aF1.1399999999999999
aF42.840000000000003
aI6
aF10.830252226684447
aa(lp11
I0
aI0
aI1
aI0
aI0
aI1
aI0
aI0
aI1
aI0
aI1
aI0
aI0
aF0.8075
aF10.9
aI5
aF8.0276298739852798
aa.