(lp1
(lp2
I0
aI0
aI1
aI0
aI0
aI1
aI0
aI0
aI0
aI1
aI1
aI0
aI0
aF1.0763499999999999
aF111
aI12
aF9.5589939975069775
aa(lp3
I0
aI1
aI0
aI0
aI1
aI0
aI0
aI0
aI0
aI1
aI0
aI1
aI0
aF0.90249999999999997
aF36.700000000000003
aI1
aF7.5626226785731427
aa(lp4
I0
aI0
aI1
aI0
aI0
aI1
aI0
aI0
aI0
aI1
aI0
aI0
aI1
aF1.1399999999999999
aF42.840000000000003
aI6
aF10.168152500030764
aa(lp5
I0
aI1
aI0
aI0
aI0
aI1
aI0
aI0
aI1
aI0
aI0
aI0
aI1
aF1.0763499999999999
aF111
aI12
aF8.6606380395457894
aa(lp6
I0
aI0
aI1
aI0
aI0
aI0
aI1
aI0
aI0
aI1
aI0
aI1
aI0
aF0.75049999999999994
aF32.700000000000003
aI9
aF5.3362303117482908
aa(lp7
I0
aI1
aI0
aI0
aI1
aI0
aI0
aI1
aI0
aI0
aI0
aI0
aI1
aF0.93384999999999996
aF12.4
aI13
aF6.0876039210626125
aa(lp8
I0
aI1
aI0
aI0
aI0
aI0
aI1
aI0
aI0
aI1
aI0
aI1
aI0
aF0.8075
aF10.9
aI5
aF4.6949810693280787
aa(lp9
I0
aI0
aI1
aI0
aI0
aI0
aI1
aI0
aI0
aI1
aI0
aI1
aI0
aF1.41455
aF4.8099999999999996
aI11
aF1.6693281621656957
aa(lp10
I0
aI1
aI0
aI0
aI1
aI0
aI0
aI1
aI0
aI0
aI1
aI0
aI0
aF0.89015
aF37.799999999999997
aI15
aF8.2188176573402334
aa(lp11
I0
aI0
aI0
aI1
aI0
aI0
aI1
aI0
aI0
aI1
aI0
aI0
aI1
aF0.74670000000000003
aF17.899999999999999
aI14
aF4.3992876421247926
aa(lp12
I1
aI0
aI1
aI0
aI0
aI1
aI0
aI0
aI0
aI1
aI1
aI0
aI0
aF1.0763499999999999
aF111
aI12
aF12.249745700287002
aa(lp13
I1
aI1
aI0
aI0
aI1
aI0
aI0
aI0
aI0
aI1
aI0
aI1
aI0
aF0.90249999999999997
aF36.700000000000003
aI1
aF11.284405043630299
aa(lp14
I1
aI0
aI1
aI0
aI0
aI1
aI0
aI0
aI0
aI1
aI0
aI0
aI1
aF1.1399999999999999
aF42.840000000000003
aI6
aF14.631581314043968
aa(lp15
I1
aI1
aI0
aI0
aI0
aI1
aI0
aI0
aI1
aI0
aI0
aI0
aI1
aF1.0763499999999999
aF111
aI12
aF8.3552122347590956
aa(lp16
I1
aI0
aI1
aI0
aI0
aI0
aI1
aI0
aI0
aI1
aI0
aI1
aI0
aF0.75049999999999994
aF32.700000000000003
aI9
aF8.2238003170769307
aa(lp17
I1
aI1
aI0
aI0
aI1
aI0
aI0
aI1
aI0
aI0
aI0
aI0
aI1
aF0.93384999999999996
aF12.4
aI13
aF9.8219477742644266
aa(lp18
I1
aI1
aI0
aI0
aI0
aI0
aI1
aI0
aI0
aI1
aI0
aI1
aI0
aF0.8075
aF10.9
aI5
aF8.2496313114938449
aa(lp19
I1
aI0
aI1
aI0
aI0
aI0
aI1
aI0
aI0
aI1
aI0
aI1
aI0
aF1.41455
aF4.8099999999999996
aI11
aF4.9758067449093621
aa(lp20
I1
aI1
aI0
aI0
aI1
aI0
aI0
aI1
aI0
aI0
aI1
aI0
aI0
aF0.89015
aF37.799999999999997
aI15
aF12.495465371188141
aa(lp21
I1
aI0
aI0
aI1
aI0
aI0
aI1
aI0
aI0
aI1
aI0
aI0
aI1
aF0.74670000000000003
aF17.899999999999999
aI14
aF7.7322194269217297
aa.