(lp1
(lp2
I0
aI1
aI0
aI0
aI0
aI1
aI0
aI0
aI1
aI0
aI1
aI0
aI0
aF1.1399999999999999
aF42.840000000000003
aI6
aF10.933489019465107
aa(lp3
I0
aI0
aI1
aI0
aI0
aI0
aI1
aI0
aI0
aI1
aI0
aI0
aI1
aF0.94999999999999996
aF46.700000000000003
aI0
aF9.6052351149337394
aa(lp4
I0
aI1
aI0
aI0
aI0
aI0
aI1
aI0
aI0
aI1
aI0
aI1
aI0
aF0.74099999999999999
aF20.699999999999999
aI4
aF5.0191284114703913
aa(lp5
I0
aI1
aI0
aI0
aI0
aI1
aI0
aI0
aI0
aI1
aI0
aI1
aI0
aF0.75049999999999994
aF24.5
aI10
aF4.8236577969167413
aa(lp6
I0
aI0
aI1
aI0
aI0
aI1
aI0
aI0
aI1
aI0
aI0
aI1
aI0
aF1.0449999999999999
aF40.240000000000002
aI3
aF6.6286027509175236
aa(lp7
I0
aI1
aI0
aI0
aI1
aI0
aI0
aI1
aI0
aI0
aI1
aI0
aI0
aF0.89015
aF37.799999999999997
aI15
aF8.2188176573402334
aa(lp8
I0
aI1
aI0
aI0
aI0
aI1
aI0
aI0
aI1
aI0
aI1
aI0
aI0
aF0.75049999999999994
aF24.5
aI10
aF4.8695207678911334
aa(lp9
I0
aI1
aI0
aI0
aI0
aI1
aI0
aI0
aI1
aI0
aI0
aI0
aI1
aF0.74670000000000003
aF17.899999999999999
aI14
aF4.6145163167175891
aa(lp10
I0
aI1
aI0
aI0
aI1
aI0
aI0
aI0
aI0
aI1
aI1
aI0
aI0
aF1.0763499999999999
aF111
aI12
aF7.4324194268930013
aa(lp11
I0
aI1
aI0
aI0
aI0
aI1
aI0
aI0
aI0
aI1
aI0
aI1
aI0
aF0.94999999999999996
aF46.700000000000003
aI0
aF8.6243339461323441
aa.