(lp1
(lp2
I0
aI0
aI0
aI1
aI0
aI0
aI1
aI0
aI0
aI1
aI1
aI0
aI0
aF1.41455
aF4.8099999999999996
aI11
aF1.7153732815974405
aa(lp3
I0
aI1
aI0
aI0
aI0
aI1
aI0
aI0
aI0
aI1
aI0
aI0
aI1
aF1.0763499999999999
aF111
aI12
aF7.0012670375111572
aa(lp4
I0
aI0
aI1
aI0
aI0
aI1
aI0
aI0
aI0
aI1
aI1
aI0
aI0
aF1.1399999999999999
aF42.840000000000003
aI6
aF11.077222514974322
aa(lp5
I0
aI0
aI1
aI0
aI0
aI1
aI0
aI0
aI0
aI1
aI0
aI1
aI0
aF0.8075
aF10.9
aI5
aF3.8394301370976307
aa(lp6
I0
aI0
aI1
aI0
aI0
aI0
aI1
aI0
aI0
aI1
aI1
aI0
aI0
aF0.90249999999999997
aF36.700000000000003
aI1
aF8.6650275207450509
aa(lp7
I0
aI0
aI1
aI0
aI0
aI1
aI0
aI0
aI0
aI1
aI0
aI0
aI1
aF1.1399999999999999
aF42.840000000000003
aI6
aF10.168152500030764
aa(lp8
I0
aI1
aI0
aI0
aI0
aI0
aI1
aI0
aI0
aI1
aI0
aI0
aI1
aF0.74099999999999999
aF20.699999999999999
aI4
aF5.3794143673798125
aa(lp9
I0
aI0
aI1
aI0
aI0
aI1
aI0
aI0
aI1
aI0
aI1
aI0
aI0
aF0.8075
aF10.9
aI5
aF8.0276298739852798
aa(lp10
I0
aI1
aI0
aI0
aI1
aI0
aI0
aI0
aI1
aI0
aI0
aI0
aI1
aF0.94999999999999996
aF80.099999999999994
aI8
aF4.9688773445358549
aa(lp11
I0
aI1
aI0
aI0
aI1
aI0
aI0
aI0
aI1
aI0
aI1
aI0
aI0
aF0.75049999999999994
aF24.5
aI10
aF4.6033171733651042
aa(lp12
I1
aI0
aI0
aI1
aI0
aI0
aI1
aI0
aI0
aI1
aI1
aI0
aI0
aF1.41455
aF4.8099999999999996
aI11
aF4.83923849483035
aa(lp13
I1
aI1
aI0
aI0
aI0
aI1
aI0
aI0
aI0
aI1
aI0
aI0
aI1
aF1.0763499999999999
aF111
aI12
aF8.8006675956974973
aa(lp14
I1
aI0
aI1
aI0
aI0
aI1
aI0
aI0
aI0
aI1
aI1
aI0
aI0
aF1.1399999999999999
aF42.840000000000003
aI6
aF15.588928197760014
aa(lp15
I1
aI0
aI1
aI0
aI0
aI1
aI0
aI0
aI0
aI1
aI0
aI1
aI0
aF0.8075
aF10.9
aI5
aF7.4155356656871723
aa(lp16
I1
aI0
aI1
aI0
aI0
aI0
aI1
aI0
aI0
aI1
aI1
aI0
aI0
aF0.90249999999999997
aF36.700000000000003
aI1
aF12.38084628915129
aa(lp17
I1
aI0
aI1
aI0
aI0
aI1
aI0
aI0
aI0
aI1
aI0
aI0
aI1
aF1.1399999999999999
aF42.840000000000003
aI6
aF14.631581314043968
aa(lp18
I1
aI1
aI0
aI0
aI0
aI0
aI1
aI0
aI0
aI1
aI0
aI0
aI1
aF0.74099999999999999
aF20.699999999999999
aI4
aF8.9477516315107053
aa(lp19
I1
aI0
aI1
aI0
aI0
aI1
aI0
aI0
aI1
aI0
aI1
aI0
aI0
aF0.8075
aF10.9
aI5
aF9.6561955459991502
aa(lp20
I1
aI1
aI0
aI0
aI1
aI0
aI0
aI0
aI1
aI0
aI0
aI0
aI1
aF0.94999999999999996
aF80.099999999999994
aI8
aF5.6414600036859657
aa(lp21
I1
aI1
aI0
aI0
aI1
aI0
aI0
aI0
aI1
aI0
aI1
aI0
aI0
aF0.75049999999999994
aF24.5
aI10
aF6.5683543914386888
aa.