(lp1
(lp2
I0
aI0
aI1
aI0
aI0
aI0
aI1
aI0
aI0
aI1
aI1
aI0
aI0
aF1.0763499999999999
aF111
aI12
aF4.2753319394280478
aa(lp3
I0
aI0
aI1
aI0
aI0
aI1
aI0
aI0
aI0
aI1
aI1
aI0
aI0
aF0.75049999999999994
aF24.5
aI10
aF5.031929767557954
aa(lp4
I0
aI1
aI0
aI0
aI1
aI0
aI0
aI0
aI0
aI1
aI0
aI1
aI0
aF1.083
aF35.899999999999999
aI7
aF4.1778371656766247
aa(lp5
I0
aI1
aI0
aI0
aI0
aI1
aI0
aI0
aI1
aI0
aI1
aI0
aI0
aF0.74099999999999999
aF20.699999999999999
aI4
aF6.1245766907568999
aa(lp6
I0
aI1
aI0
aI0
aI1
aI0
aI0
aI0
aI0
aI1
aI0
aI0
aI1
aF1.41455
aF4.8099999999999996
aI11
aF1.5004123372439659
aa(lp7
I0
aI0
aI0
aI1
aI0
aI0
aI1
aI0
aI0
aI1
aI0
aI0
aI1
aF0.94999999999999996
aF46.700000000000003
aI0
aF9.6214560430024925
aa(lp8
I0
aI0
aI0
aI1
aI0
aI0
aI1
aI0
aI0
aI1
aI1
aI0
aI0
aF0.94999999999999996
aF80.099999999999994
aI8
aF4.9775622014161476
aa(lp9
I0
aI1
aI0
aI0
aI1
aI0
aI0
aI0
aI0
aI1
aI1
aI0
aI0
aF0.75049999999999994
aF24.5
aI10
aF4.7208382257741777
aa(lp10
I0
aI1
aI0
aI0
aI1
aI0
aI0
aI0
aI1
aI0
aI1
aI0
aI0
aF0.74099999999999999
aF20.699999999999999
aI4
aF5.87803989827494
aa(lp11
I0
aI1
aI0
aI0
aI1
aI0
aI0
aI0
aI1
aI0
aI0
aI0
aI1
aF0.75049999999999994
aF32.700000000000003
aI9
aF3.5842488051990928
aa.