(lp1
(lp2
I0
aI0
aI1
aI0
aI0
aI1
aI0
aI0
aI0
aI1
aI1
aI0
aI0
aF1.0763499999999999
aF111
aI12
aF9.5589939975069775
aa(lp3
I0
aI0
aI0
aI1
aI0
aI0
aI1
aI0
aI0
aI1
aI0
aI1
aI0
aF0.74670000000000003
aF17.899999999999999
aI14
aF5.1837787248913356
aa(lp4
I0
aI0
aI0
aI1
aI0
aI0
aI1
aI0
aI0
aI1
aI0
aI0
aI1
aF1.1399999999999999
aF42.840000000000003
aI6
aF10.022998915988941
aa(lp5
I0
aI1
aI0
aI0
aI0
aI1
aI0
aI0
aI1
aI0
aI0
aI0
aI1
aF0.8075
aF10.9
aI5
aF4.6154751980968349
aa(lp6
I0
aI0
aI0
aI1
aI0
aI0
aI1
aI0
aI0
aI1
aI1
aI0
aI0
aF0.89015
aF37.799999999999997
aI15
aF8.3833059803936418
aa(lp7
I0
aI1
aI0
aI0
aI1
aI0
aI0
aI1
aI0
aI0
aI0
aI0
aI1
aF0.75049999999999994
aF32.700000000000003
aI9
aF3.7062666288515316
aa(lp8
I0
aI1
aI0
aI0
aI0
aI1
aI0
aI0
aI0
aI1
aI1
aI0
aI0
aF0.89015
aF37.799999999999997
aI15
aF8.7176989140201631
aa(lp9
I0
aI0
aI1
aI0
aI0
aI0
aI1
aI0
aI0
aI1
aI0
aI0
aI1
aF0.94999999999999996
aF46.700000000000003
aI0
aF9.6052351149337394
aa(lp10
I0
aI0
aI1
aI0
aI0
aI1
aI0
aI0
aI1
aI0
aI0
aI1
aI0
aF0.93384999999999996
aF12.4
aI13
aF5.7028969394187028
aa(lp11
I0
aI0
aI1
aI0
aI0
aI1
aI0
aI0
aI0
aI1
aI1
aI0
aI0
aF0.94999999999999996
aF46.700000000000003
aI0
aF10.744891781215671
aa(lp12
I1
aI0
aI1
aI0
aI0
aI1
aI0
aI0
aI0
aI1
aI1
aI0
aI0
aF1.0763499999999999
aF111
aI12
aF12.249745700287002
aa(lp13
I1
aI0
aI0
aI1
aI0
aI0
aI1
aI0
aI0
aI1
aI0
aI1
aI0
aF0.74670000000000003
aF17.899999999999999
aI14
aF9.2895190552949565
aa(lp14
I1
aI0
aI0
aI1
aI0
aI0
aI1
aI0
aI0
aI1
aI0
aI0
aI1
aF1.1399999999999999
aF42.840000000000003
aI6
aF14.978238438589228
aa(lp15
I1
aI1
aI0
aI0
aI0
aI1
aI0
aI0
aI1
aI0
aI0
aI0
aI1
aF0.8075
aF10.9
aI5
aF7.286247138374728
aa(lp16
I1
aI0
aI0
aI1
aI0
aI0
aI1
aI0
aI0
aI1
aI1
aI0
aI0
aF0.89015
aF37.799999999999997
aI15
aF13.103848741754929
aa(lp17
I1
aI1
aI0
aI0
aI1
aI0
aI0
aI1
aI0
aI0
aI0
aI0
aI1
aF0.75049999999999994
aF32.700000000000003
aI9
aF5.3546604528054456
aa(lp18
I1
aI1
aI0
aI0
aI0
aI1
aI0
aI0
aI0
aI1
aI1
aI0
aI0
aF0.89015
aF37.799999999999997
aI15
aF12.304453828371971
aa(lp19
I1
aI0
aI1
aI0
aI0
aI0
aI1
aI0
aI0
aI1
aI0
aI0
aI1
aF0.94999999999999996
aF46.700000000000003
aI0
aF13.459337681513512
aa(lp20
I1
aI0
aI1
aI0
aI0
aI1
aI0
aI0
aI1
aI0
aI0
aI1
aI0
aF0.93384999999999996
aF12.4
aI13
aF9.6725930487533578
aa(lp21
I1
aI0
aI1
aI0
aI0
aI1
aI0
aI0
aI0
aI1
aI1
aI0
aI0
aF0.94999999999999996
aF46.700000000000003
aI0
aF14.346719982774832
aa.