(lp1
(lp2
I0
aI1
aI0
aI0
aI1
aI0
aI0
aI0
aI1
aI0
aI1
aI0
aI0
aF0.94999999999999996
aF46.700000000000003
aI0
aF10.840586522838031
aa(lp3
I0
aI1
aI0
aI0
aI1
aI0
aI0
aI0
aI0
aI1
aI0
aI1
aI0
aF0.90249999999999997
aF36.700000000000003
aI1
aF7.5626226785731427
aa(lp4
I0
aI1
aI0
aI0
aI1
aI0
aI0
aI0
aI0
aI1
aI0
aI1
aI0
aF0.74670000000000003
aF17.899999999999999
aI14
aF4.8326791038243053
aa(lp5
I0
aI0
aI1
aI0
aI0
aI1
aI0
aI0
aI1
aI0
aI0
aI0
aI1
aF0.74670000000000003
aF17.899999999999999
aI14
aF4.5336065540786352
aa(lp6
I0
aI0
aI1
aI0
aI0
aI0
aI1
aI0
aI0
aI1
aI0
aI1
aI0
aF0.90249999999999997
aF36.700000000000003
aI1
aF7.1475655481503964
aa(lp7
I0
aI1
aI0
aI0
aI1
aI0
aI0
aI0
aI0
aI1
aI0
aI0
aI1
aF1.1399999999999999
aF42.840000000000003
aI6
aF10.035573439135256
aa(lp8
I0
aI1
aI0
aI0
aI0
aI1
aI0
aI0
aI0
aI1
aI0
aI0
aI1
aF1.1399999999999999
aF42.840000000000003
aI6
aF10.137764085751236
aa(lp9
I0
aI0
aI1
aI0
aI0
aI1
aI0
aI0
aI0
aI1
aI0
aI1
aI0
aF0.89015
aF37.799999999999997
aI15
aF6.8292851456698509
aa(lp10
I0
aI0
aI1
aI0
aI0
aI1
aI0
aI0
aI0
aI1
aI1
aI0
aI0
aF1.0763499999999999
aF111
aI12
aF9.5589939975069775
aa(lp11
I0
aI1
aI0
aI0
aI0
aI1
aI0
aI0
aI1
aI0
aI0
aI1
aI0
aF0.94999999999999996
aF80.099999999999994
aI8
aF8.5662130699632417
aa(lp12
I1
aI1
aI0
aI0
aI1
aI0
aI0
aI0
aI1
aI0
aI1
aI0
aI0
aF0.94999999999999996
aF46.700000000000003
aI0
aF14.219440910092995
aa(lp13
I1
aI1
aI0
aI0
aI1
aI0
aI0
aI0
aI0
aI1
aI0
aI1
aI0
aF0.90249999999999997
aF36.700000000000003
aI1
aF11.284405043630299
aa(lp14
I1
aI1
aI0
aI0
aI1
aI0
aI0
aI0
aI0
aI1
aI0
aI1
aI0
aF0.74670000000000003
aF17.899999999999999
aI14
aF8.4453231114534653
aa(lp15
I1
aI0
aI1
aI0
aI0
aI1
aI0
aI0
aI1
aI0
aI0
aI0
aI1
aF0.74670000000000003
aF17.899999999999999
aI14
aF7.3842065764562621
aa(lp16
I1
aI0
aI1
aI0
aI0
aI0
aI1
aI0
aI0
aI1
aI0
aI1
aI0
aF0.90249999999999997
aF36.700000000000003
aI1
aF11.472076243750953
aa(lp17
I1
aI1
aI0
aI0
aI1
aI0
aI0
aI0
aI0
aI1
aI0
aI0
aI1
aF1.1399999999999999
aF42.840000000000003
aI6
aF14.709149017169784
aa(lp18
I1
aI1
aI0
aI0
aI0
aI1
aI0
aI0
aI0
aI1
aI0
aI0
aI1
aF1.1399999999999999
aF42.840000000000003
aI6
aF14.37917978338748
aa(lp19
I1
aI0
aI1
aI0
aI0
aI1
aI0
aI0
aI0
aI1
aI0
aI1
aI0
aF0.89015
aF37.799999999999997
aI15
aF11.568111466704663
aa(lp20
I1
aI0
aI1
aI0
aI0
aI1
aI0
aI0
aI0
aI1
aI1
aI0
aI0
aF1.0763499999999999
aF111
aI12
aF12.249745700287002
aa(lp21
I1
aI1
aI0
aI0
aI0
aI1
aI0
aI0
aI1
aI0
aI0
aI1
aI0
aF0.94999999999999996
aF80.099999999999994
aI8
aF9.6627761105185179
aa.