(lp1
(lp2
I0
aI1
aI0
aI0
aI0
aI0
aI1
aI0
aI0
aI1
aI0
aI0
aI1
aF1.0763499999999999
aF111
aI12
aF8.0238215173604388
aa(lp3
I0
aI0
aI1
aI0
aI0
aI1
aI0
aI0
aI0
aI1
aI1
aI0
aI0
aF0.94999999999999996
aF80.099999999999994
aI8
aF5.0654155366988798
aa(lp4
I0
aI1
aI0
aI0
aI0
aI1
aI0
aI0
aI0
aI1
aI0
aI0
aI1
aF0.90249999999999997
aF36.700000000000003
aI1
aF8.081827232776206
aa(lp5
I0
aI1
aI0
aI0
aI1
aI0
aI0
aI0
aI0
aI1
aI0
aI1
aI0
aF0.8075
aF10.9
aI5
aF3.8268514968990979
aa(lp6
I0
aI0
aI1
aI0
aI0
aI1
aI0
aI0
aI0
aI1
aI0
aI1
aI0
aF0.74670000000000003
aF17.899999999999999
aI14
aF5.8739167391050797
aa(lp7
I0
aI1
aI0
aI0
aI1
aI0
aI0
aI0
aI0
aI1
aI0
aI0
aI1
aF1.41455
aF4.8099999999999996
aI11
aF1.5004123372439659
aa(lp8
I0
aI1
aI0
aI0
aI1
aI0
aI0
aI0
aI1
aI0
aI1
aI0
aI0
aF1.0763499999999999
aF111
aI12
aF7.3148456398046706
aa(lp9
I0
aI0
aI1
aI0
aI0
aI1
aI0
aI0
aI0
aI1
aI0
aI0
aI1
aF1.1399999999999999
aF42.840000000000003
aI6
aF10.168152500030764
aa(lp10
I0
aI0
aI1
aI0
aI0
aI1
aI0
aI0
aI0
aI1
aI1
aI0
aI0
aF0.94999999999999996
aF46.700000000000003
aI0
aF10.744891781215671
aa(lp11
I0
aI1
aI0
aI0
aI0
aI0
aI1
aI0
aI0
aI1
aI0
aI1
aI0
aF1.1399999999999999
aF42.840000000000003
aI6
aF8.6335844819354755
aa.