(lp1
(lp2
I0
aI1
aI0
aI0
aI0
aI1
aI0
aI0
aI1
aI0
aI0
aI0
aI1
aF1.0449999999999999
aF32.299999999999997
aI2
aF7.1340284227832518
aa(lp3
I0
aI1
aI0
aI0
aI1
aI0
aI0
aI0
aI1
aI0
aI0
aI1
aI0
aF0.94999999999999996
aF46.700000000000003
aI0
aF8.9660502730125806
aa(lp4
I0
aI1
aI0
aI0
aI1
aI0
aI0
aI0
aI1
aI0
aI0
aI1
aI0
aF1.0449999999999999
aF40.240000000000002
aI3
aF5.3914652309036688
aa(lp5
I0
aI1
aI0
aI0
aI1
aI0
aI0
aI1
aI0
aI0
aI0
aI0
aI1
aF0.94999999999999996
aF80.099999999999994
aI8
aF5.0362416920596713
aa(lp6
I0
aI1
aI0
aI0
aI0
aI1
aI0
aI0
aI0
aI1
aI0
aI1
aI0
aF0.94999999999999996
aF46.700000000000003
aI0
aF8.6243339461323441
aa(lp7
I0
aI0
aI0
aI1
aI0
aI0
aI1
aI0
aI0
aI1
aI1
aI0
aI0
aF1.0763499999999999
aF111
aI12
aF7.2524977142426961
aa(lp8
I0
aI1
aI0
aI0
aI1
aI0
aI0
aI1
aI0
aI0
aI0
aI0
aI1
aF0.89015
aF37.799999999999997
aI15
aF7.5044748284070097
aa(lp9
I0
aI0
aI0
aI1
aI0
aI0
aI1
aI0
aI0
aI1
aI1
aI0
aI0
aF1.0449999999999999
aF40.240000000000002
aI3
aF6.085043730371309
aa(lp10
I0
aI1
aI0
aI0
aI1
aI0
aI0
aI1
aI0
aI0
aI0
aI0
aI1
aF1.083
aF35.899999999999999
aI7
aF3.5983198920931692
aa(lp11
I0
aI1
aI0
aI0
aI0
aI1
aI0
aI0
aI1
aI0
aI0
aI0
aI1
aF1.41455
aF4.8099999999999996
aI11
aF1.5762400149616467
aa.