(lp1
(lp2
I0
aI1
aI0
aI0
aI1
aI0
aI0
aI0
aI0
aI1
aI1
aI0
aI0
aF0.75049999999999994
aF32.700000000000003
aI9
aF3.996857077407423
aa(lp3
I0
aI1
aI0
aI0
aI1
aI0
aI0
aI0
aI0
aI1
aI0
aI1
aI0
aF0.75049999999999994
aF24.5
aI10
aF7.245663421399402
aa(lp4
I0
aI1
aI0
aI0
aI1
aI0
aI0
aI0
aI1
aI0
aI1
aI0
aI0
aF0.90249999999999997
aF36.700000000000003
aI1
aF8.5594217520626845
aa(lp5
I0
aI1
aI0
aI0
aI1
aI0
aI0
aI1
aI0
aI0
aI0
aI1
aI0
aF0.74099999999999999
aF20.699999999999999
aI4
aF5.4357206950156041
aa(lp6
I0
aI1
aI0
aI0
aI0
aI1
aI0
aI0
aI0
aI1
aI0
aI1
aI0
aF0.94999999999999996
aF46.700000000000003
aI0
aF8.6243339461323441
aa(lp7
I0
aI1
aI0
aI0
aI0
aI1
aI0
aI0
aI0
aI1
aI0
aI1
aI0
aF0.89015
aF37.799999999999997
aI15
aF8.6497144479187149
aa(lp8
I0
aI0
aI1
aI0
aI0
aI1
aI0
aI0
aI1
aI0
aI1
aI0
aI0
aF1.41455
aF4.8099999999999996
aI11
aF1.4693359877365246
aa(lp9
I0
aI0
aI1
aI0
aI0
aI0
aI1
aI0
aI0
aI1
aI1
aI0
aI0
aF1.0763499999999999
aF111
aI12
aF4.2753319394280478
aa(lp10
I0
aI1
aI0
aI0
aI0
aI1
aI0
aI0
aI1
aI0
aI0
aI1
aI0
aF0.94999999999999996
aF80.099999999999994
aI8
aF8.5662130699632417
aa(lp11
I0
aI0
aI1
aI0
aI0
aI1
aI0
aI0
aI1
aI0
aI0
aI1
aI0
aF0.8075
aF10.9
aI5
aF3.8418560397782708
aa.