(lp1
(lp2
I0
aI1
aI0
aI0
aI0
aI1
aI0
aI0
aI1
aI0
aI0
aI0
aI1
aF0.75049999999999994
aF24.5
aI10
aF4.6553855441875536
aa(lp3
I0
aI1
aI0
aI0
aI0
aI1
aI0
aI0
aI1
aI0
aI0
aI1
aI0
aF0.75049999999999994
aF24.5
aI10
aF3.5735065091135785
aa(lp4
I0
aI1
aI0
aI0
aI1
aI0
aI0
aI0
aI0
aI1
aI0
aI1
aI0
aF1.41455
aF4.8099999999999996
aI11
aF1.5792562682031477
aa(lp5
I0
aI0
aI1
aI0
aI0
aI0
aI1
aI0
aI0
aI1
aI0
aI1
aI0
aF0.93384999999999996
aF12.4
aI13
aF3.9803631846104444
aa(lp6
I0
aI0
aI0
aI1
aI0
aI0
aI1
aI0
aI0
aI1
aI0
aI0
aI1
aF0.94999999999999996
aF80.099999999999994
aI8
aF4.8260206732863091
aa(lp7
I0
aI1
aI0
aI0
aI1
aI0
aI0
aI0
aI0
aI1
aI0
aI1
aI0
aF0.75049999999999994
aF32.700000000000003
aI9
aF5.2940936044675437
aa(lp8
I0
aI0
aI0
aI1
aI0
aI0
aI1
aI0
aI0
aI1
aI0
aI1
aI0
aF0.94999999999999996
aF80.099999999999994
aI8
aF7.4793988499466337
aa(lp9
I0
aI1
aI0
aI0
aI0
aI1
aI0
aI0
aI0
aI1
aI0
aI0
aI1
aF1.0763499999999999
aF111
aI12
aF7.0012670375111572
aa(lp10
I0
aI1
aI0
aI0
aI1
aI0
aI0
aI0
aI0
aI1
aI0
aI0
aI1
aF1.0449999999999999
aF40.240000000000002
aI3
aF5.6397729955978022
aa(lp11
I0
aI0
aI1
aI0
aI0
aI1
aI0
aI0
aI0
aI1
aI1
aI0
aI0
aF0.8075
aF10.9
aI5
aF5.0595057790377318
aa.