(lp1
(lp2
I0
aI1
aI0
aI0
aI1
aI0
aI0
aI1
aI0
aI0
aI1
aI0
aI0
aF0.74099999999999999
aF20.699999999999999
aI4
aF5.7949289925322036
aa(lp3
I0
aI1
aI0
aI0
aI1
aI0
aI0
aI1
aI0
aI0
aI0
aI1
aI0
aF0.94999999999999996
aF46.700000000000003
aI0
aF9.6586719727405601
aa(lp4
I0
aI1
aI0
aI0
aI1
aI0
aI0
aI0
aI1
aI0
aI0
aI1
aI0
aF1.0763499999999999
aF111
aI12
aF9.6366438863032435
aa(lp5
I0
aI1
aI0
aI0
aI0
aI1
aI0
aI0
aI1
aI0
aI1
aI0
aI0
aF1.0763499999999999
aF111
aI12
aF7.9610673549111075
aa(lp6
I0
aI0
aI0
aI1
aI0
aI0
aI1
aI0
aI0
aI1
aI0
aI0
aI1
aF0.90249999999999997
aF36.700000000000003
aI1
aF8.0335092264396373
aa(lp7
I0
aI1
aI0
aI0
aI1
aI0
aI0
aI1
aI0
aI0
aI0
aI0
aI1
aF1.0763499999999999
aF111
aI12
aF6.6702071478581066
aa(lp8
I0
aI1
aI0
aI0
aI0
aI1
aI0
aI0
aI0
aI1
aI0
aI0
aI1
aF1.41455
aF4.8099999999999996
aI11
aF1.6191996928166896
aa(lp9
I0
aI1
aI0
aI0
aI0
aI1
aI0
aI0
aI1
aI0
aI0
aI1
aI0
aF0.74670000000000003
aF17.899999999999999
aI14
aF4.1281531413600048
aa(lp10
I0
aI0
aI1
aI0
aI0
aI1
aI0
aI0
aI0
aI1
aI0
aI0
aI1
aF1.41455
aF4.8099999999999996
aI11
aF1.6663477713367765
aa(lp11
I0
aI0
aI1
aI0
aI0
aI1
aI0
aI0
aI1
aI0
aI0
aI0
aI1
aF0.74099999999999999
aF20.699999999999999
aI4
aF6.023770262556452
aa(lp12
I1
aI1
aI0
aI0
aI1
aI0
aI0
aI1
aI0
aI0
aI1
aI0
aI0
aF0.74099999999999999
aF20.699999999999999
aI4
aF8.9932525472921991
aa(lp13
I1
aI1
aI0
aI0
aI1
aI0
aI0
aI1
aI0
aI0
aI0
aI1
aI0
aF0.94999999999999996
aF46.700000000000003
aI0
aF13.41552168904173
aa(lp14
I1
aI1
aI0
aI0
aI1
aI0
aI0
aI0
aI1
aI0
aI0
aI1
aI0
aF1.0763499999999999
aF111
aI12
aF12.364837972387692
aa(lp15
I1
aI1
aI0
aI0
aI0
aI1
aI0
aI0
aI1
aI0
aI1
aI0
aI0
aF1.0763499999999999
aF111
aI12
aF9.4411115316606491
aa(lp16
I1
aI0
aI0
aI1
aI0
aI0
aI1
aI0
aI0
aI1
aI0
aI0
aI1
aF0.90249999999999997
aF36.700000000000003
aI1
aF11.935019859335107
aa(lp17
I1
aI1
aI0
aI0
aI1
aI0
aI0
aI1
aI0
aI0
aI0
aI0
aI1
aF1.0763499999999999
aF111
aI12
aF8.2581827305684286
aa(lp18
I1
aI1
aI0
aI0
aI0
aI1
aI0
aI0
aI0
aI1
aI0
aI0
aI1
aF1.41455
aF4.8099999999999996
aI11
aF4.581426380118339
aa(lp19
I1
aI1
aI0
aI0
aI0
aI1
aI0
aI0
aI1
aI0
aI0
aI1
aI0
aF0.74670000000000003
aF17.899999999999999
aI14
aF7.4143079868537933
aa(lp20
I1
aI0
aI1
aI0
aI0
aI1
aI0
aI0
aI0
aI1
aI0
aI0
aI1
aF1.41455
aF4.8099999999999996
aI11
aF3.9668472443133576
aa(lp21
I1
aI0
aI1
aI0
aI0
aI1
aI0
aI0
aI1
aI0
aI0
aI0
aI1
aF0.74099999999999999
aF20.699999999999999
aI4
aF8.8332180189699852
aa.