(lp1
(lp2
I0
aI1
aI0
aI0
aI0
aI0
aI1
aI0
aI0
aI1
aI0
aI1
aI0
aF1.0449999999999999
aF40.240000000000002
aI3
aF5.4300988074210954
aa(lp3
I0
aI1
aI0
aI0
aI0
aI1
aI0
aI0
aI1
aI0
aI0
aI1
aI0
aF0.74670000000000003
aF17.899999999999999
aI14
aF4.1281531413600048
aa(lp4
I0
aI1
aI0
aI0
aI1
aI0
aI0
aI0
aI1
aI0
aI1
aI0
aI0
aF0.75049999999999994
aF32.700000000000003
aI9
aF6.5261872612593548
aa(lp5
I0
aI0
aI1
aI0
aI0
aI0
aI1
aI0
aI0
aI1
aI0
aI0
aI1
aF0.90249999999999997
aF36.700000000000003
aI1
aF7.9932345651717114
aa(lp6
I0
aI1
aI0
aI0
aI1
aI0
aI0
aI0
aI1
aI0
aI0
aI1
aI0
aF0.89015
aF37.799999999999997
aI15
aF8.9317531626572588
aa(lp7
I0
aI1
aI0
aI0
aI1
aI0
aI0
aI0
aI1
aI0
aI0
aI1
aI0
aF1.0449999999999999
aF40.240000000000002
aI3
aF5.3914652309036688
aa(lp8
I0
aI1
aI0
aI0
aI1
aI0
aI0
aI0
aI0
aI1
aI0
aI0
aI1
aF1.0763499999999999
aF111
aI12
aF6.6016772830540988
aa(lp9
I0
aI1
aI0
aI0
aI0
aI0
aI1
aI0
aI0
aI1
aI0
aI0
aI1
aF1.0449999999999999
aF32.299999999999997
aI2
aF7.8805685510143473
aa(lp10
I0
aI1
aI0
aI0
aI1
aI0
aI0
aI1
aI0
aI0
aI0
aI0
aI1
aF0.8075
aF10.9
aI5
aF4.2871082663646449
aa(lp11
I0
aI1
aI0
aI0
aI1
aI0
aI0
aI1
aI0
aI0
aI0
aI1
aI0
aF1.083
aF35.899999999999999
aI7
aF4.8759540577652691
aa(lp12
I1
aI1
aI0
aI0
aI0
aI0
aI1
aI0
aI0
aI1
aI0
aI1
aI0
aF1.0449999999999999
aF40.240000000000002
aI3
aF9.3222970868088666
aa(lp13
I1
aI1
aI0
aI0
aI0
aI1
aI0
aI0
aI1
aI0
aI0
aI1
aI0
aF0.74670000000000003
aF17.899999999999999
aI14
aF7.4143079868537933
aa(lp14
I1
aI1
aI0
aI0
aI1
aI0
aI0
aI0
aI1
aI0
aI1
aI0
aI0
aF0.75049999999999994
aF32.700000000000003
aI9
aF5.707173853282228
aa(lp15
I1
aI0
aI1
aI0
aI0
aI0
aI1
aI0
aI0
aI1
aI0
aI0
aI1
aF0.90249999999999997
aF36.700000000000003
aI1
aF11.681253945334943
aa(lp16
I1
aI1
aI0
aI0
aI1
aI0
aI0
aI0
aI1
aI0
aI0
aI1
aI0
aF0.89015
aF37.799999999999997
aI15
aF13.020762019556379
aa(lp17
I1
aI1
aI0
aI0
aI1
aI0
aI0
aI0
aI1
aI0
aI0
aI1
aI0
aF1.0449999999999999
aF40.240000000000002
aI3
aF9.0119862454749882
aa(lp18
I1
aI1
aI0
aI0
aI1
aI0
aI0
aI0
aI0
aI1
aI0
aI0
aI1
aF1.0763499999999999
aF111
aI12
aF8.0928245458332633
aa(lp19
I1
aI1
aI0
aI0
aI0
aI0
aI1
aI0
aI0
aI1
aI0
aI0
aI1
aF1.0449999999999999
aF32.299999999999997
aI2
aF11.761210341869482
aa(lp20
I1
aI1
aI0
aI0
aI1
aI0
aI0
aI1
aI0
aI0
aI0
aI0
aI1
aF0.8075
aF10.9
aI5
aF7.4589664044554329
aa(lp21
I1
aI1
aI0
aI0
aI1
aI0
aI0
aI1
aI0
aI0
aI0
aI1
aI0
aF1.083
aF35.899999999999999
aI7
aF7.3324031074685321
aa.