(lp1
(lp2
I0
aI0
aI1
aI0
aI0
aI1
aI0
aI0
aI0
aI1
aI0
aI0
aI1
aF1.0449999999999999
aF40.240000000000002
aI3
aF6.6054200576166755
aa(lp3
I0
aI0
aI0
aI1
aI0
aI0
aI1
aI0
aI0
aI1
aI0
aI1
aI0
aF0.93384999999999996
aF12.4
aI13
aF3.7302871240163609
aa(lp4
I0
aI0
aI1
aI0
aI0
aI1
aI0
aI0
aI0
aI1
aI1
aI0
aI0
aF1.0763499999999999
aF111
aI12
aF9.5589939975069775
aa(lp5
I0
aI1
aI0
aI0
aI1
aI0
aI0
aI0
aI1
aI0
aI1
aI0
aI0
aF1.41455
aF4.8099999999999996
aI11
aF1.5578577346365334
aa(lp6
I0
aI0
aI1
aI0
aI0
aI1
aI0
aI0
aI1
aI0
aI1
aI0
aI0
aF1.0763499999999999
aF111
aI12
aF7.9704581892273598
aa(lp7
I0
aI1
aI0
aI0
aI0
aI1
aI0
aI0
aI0
aI1
aI1
aI0
aI0
aF1.1399999999999999
aF42.840000000000003
aI6
aF11.110035684821245
aa(lp8
I0
aI0
aI0
aI1
aI0
aI0
aI1
aI0
aI0
aI1
aI0
aI0
aI1
aF0.93384999999999996
aF12.4
aI13
aF1.0008465034958838
aa(lp9
I0
aI1
aI0
aI0
aI1
aI0
aI0
aI0
aI1
aI0
aI0
aI0
aI1
aF0.8075
aF10.9
aI5
aF4.4285179190286916
aa(lp10
I0
aI1
aI0
aI0
aI0
aI1
aI0
aI0
aI1
aI0
aI0
aI1
aI0
aF0.93384999999999996
aF12.4
aI13
aF0.42980752436980163
aa(lp11
I0
aI1
aI0
aI0
aI0
aI1
aI0
aI0
aI0
aI1
aI1
aI0
aI0
aF1.0449999999999999
aF40.240000000000002
aI3
aF6.1379855745701324
aa.