(lp1
(lp2
I0
aI1
aI0
aI0
aI1
aI0
aI0
aI1
aI0
aI0
aI1
aI0
aI0
aF0.75049999999999994
aF24.5
aI10
aF4.6041863935765681
aa(lp3
I0
aI1
aI0
aI0
aI1
aI0
aI0
aI0
aI1
aI0
aI0
aI0
aI1
aF1.1399999999999999
aF42.840000000000003
aI6
aF9.4785992493371332
aa(lp4
I0
aI0
aI1
aI0
aI0
aI0
aI1
aI0
aI0
aI1
aI0
aI0
aI1
aF0.89015
aF37.799999999999997
aI15
aF7.8896208936129604
aa(lp5
I0
aI0
aI1
aI0
aI0
aI1
aI0
aI0
aI1
aI0
aI0
aI0
aI1
aF0.75049999999999994
aF32.700000000000003
aI9
aF7.3085389919463113
aa(lp6
I0
aI1
aI0
aI0
aI0
aI0
aI1
aI0
aI0
aI1
aI1
aI0
aI0
aF1.1399999999999999
aF42.840000000000003
aI6
aF10.830252226684447
aa(lp7
I0
aI1
aI0
aI0
aI0
aI1
aI0
aI0
aI0
aI1
aI1
aI0
aI0
aF0.75049999999999994
aF24.5
aI10
aF4.8279623710477839
aa(lp8
I0
aI1
aI0
aI0
aI0
aI1
aI0
aI0
aI0
aI1
aI1
aI0
aI0
aF1.0449999999999999
aF32.299999999999997
aI2
aF7.9423296695110572
aa(lp9
I0
aI0
aI0
aI1
aI0
aI0
aI1
aI0
aI0
aI1
aI0
aI0
aI1
aF1.0449999999999999
aF40.240000000000002
aI3
aF5.6994730817425241
aa(lp10
I0
aI1
aI0
aI0
aI1
aI0
aI0
aI1
aI0
aI0
aI0
aI0
aI1
aF0.94999999999999996
aF80.099999999999994
aI8
aF5.0362416920596713
aa(lp11
I0
aI1
aI0
aI0
aI0
aI0
aI1
aI0
aI0
aI1
aI0
aI1
aI0
aF1.0763499999999999
aF111
aI12
aF8.9156982272969341
aa(lp12
I1
aI1
aI0
aI0
aI1
aI0
aI0
aI1
aI0
aI0
aI1
aI0
aI0
aF0.75049999999999994
aF24.5
aI10
aF9.3656313798908002
aa(lp13
I1
aI1
aI0
aI0
aI1
aI0
aI0
aI0
aI1
aI0
aI0
aI0
aI1
aF1.1399999999999999
aF42.840000000000003
aI6
aF13.344149943053029
aa(lp14
I1
aI0
aI1
aI0
aI0
aI0
aI1
aI0
aI0
aI1
aI0
aI0
aI1
aF0.89015
aF37.799999999999997
aI15
aF12.244056507677548
aa(lp15
I1
aI0
aI1
aI0
aI0
aI1
aI0
aI0
aI1
aI0
aI0
aI0
aI1
aF0.75049999999999994
aF32.700000000000003
aI9
aF5.3314851152969522
aa(lp16
I1
aI1
aI0
aI0
aI0
aI0
aI1
aI0
aI0
aI1
aI1
aI0
aI0
aF1.1399999999999999
aF42.840000000000003
aI6
aF15.874940306474826
aa(lp17
I1
aI1
aI0
aI0
aI0
aI1
aI0
aI0
aI0
aI1
aI1
aI0
aI0
aF0.75049999999999994
aF24.5
aI10
aF9.741684774904444
aa(lp18
I1
aI1
aI0
aI0
aI0
aI1
aI0
aI0
aI0
aI1
aI1
aI0
aI0
aF1.0449999999999999
aF32.299999999999997
aI2
aF12.973973552193131
aa(lp19
I1
aI0
aI0
aI1
aI0
aI0
aI1
aI0
aI0
aI1
aI0
aI0
aI1
aF1.0449999999999999
aF40.240000000000002
aI3
aF9.5214271394318271
aa(lp20
I1
aI1
aI0
aI0
aI1
aI0
aI0
aI1
aI0
aI0
aI0
aI0
aI1
aF0.94999999999999996
aF80.099999999999994
aI8
aF5.7196448142171397
aa(lp21
I1
aI1
aI0
aI0
aI0
aI0
aI1
aI0
aI0
aI1
aI0
aI1
aI0
aF1.0763499999999999
aF111
aI12
aF8.1685214084113671
aa.